Archive member included to satisfy reference by file (symbol)

/home/zhurish/workspace/working/zpl-source/source/debug/lib/libbase.a(log.o)
                              os_main.o (zlog_signal)
/home/zhurish/workspace/working/zpl-source/source/debug/lib/libbase.a(module.o)
                              /home/zhurish/workspace/working/zpl-source/source/debug/lib/libbase.a(log.o) (module2name)
/home/zhurish/workspace/working/zpl-source/source/debug/lib/libbase.a(memory.o)
                              /home/zhurish/workspace/working/zpl-source/source/debug/lib/libbase.a(log.o) (zmalloc)
/home/zhurish/workspace/working/zpl-source/source/debug/lib/libbase.a(memtypes.o)
                              /home/zhurish/workspace/working/zpl-source/source/debug/lib/libbase.a(memory.o) (mlists)
/home/zhurish/workspace/working/zpl-source/source/debug/lib/libbase.a(command.o)
                              os_main.o (print_version)
/home/zhurish/workspace/working/zpl-source/source/debug/lib/libbase.a(cli_node.o)
                              /home/zhurish/workspace/working/zpl-source/source/debug/lib/libbase.a(command.o) (node_parent)
/home/zhurish/workspace/working/zpl-source/source/debug/lib/libbase.a(host.o)
                              os_main.o (host_config_loading)
/home/zhurish/workspace/working/zpl-source/source/debug/lib/libbase.a(cmd_host.o)
                              /home/zhurish/workspace/working/zpl-source/source/debug/lib/libbase.a(command.o) (config_exit_cmd)
/home/zhurish/workspace/working/zpl-source/source/debug/lib/libbase.a(hash.o)
                              /home/zhurish/workspace/working/zpl-source/source/debug/lib/libbase.a(command.o) (hash_create)
/home/zhurish/workspace/working/zpl-source/source/debug/lib/libbase.a(str.o)
                              /home/zhurish/workspace/working/zpl-source/source/debug/lib/libbase.a(command.o) (strchr_count)
/home/zhurish/workspace/working/zpl-source/source/debug/lib/libbase.a(moduletypes.o)
                              /home/zhurish/workspace/working/zpl-source/source/debug/lib/libbase.a(module.o) (module_tbl)
/home/zhurish/workspace/working/zpl-source/source/debug/lib/libbase.a(prefix.o)
                              /home/zhurish/workspace/working/zpl-source/source/debug/lib/libbase.a(host.o) (ether_aton_r)
/home/zhurish/workspace/working/zpl-source/source/debug/lib/libbase.a(vector.o)
                              /home/zhurish/workspace/working/zpl-source/source/debug/lib/libbase.a(command.o) (vector_init)
/home/zhurish/workspace/working/zpl-source/source/debug/lib/libbase.a(workqueue.o)
                              /home/zhurish/workspace/working/zpl-source/source/debug/lib/libbase.a(cmd_host.o) (show_work_queues_cmd)
/home/zhurish/workspace/working/zpl-source/source/debug/lib/libbase.a(thread.o)
                              /home/zhurish/workspace/working/zpl-source/source/debug/lib/libbase.a(workqueue.o) (funcname_thread_add_background)
/home/zhurish/workspace/working/zpl-source/source/debug/lib/libbase.a(linklist.o)
                              /home/zhurish/workspace/working/zpl-source/source/debug/lib/libbase.a(workqueue.o) (list_new)
/home/zhurish/workspace/working/zpl-source/source/debug/lib/libbase.a(pqueue.o)
                              /home/zhurish/workspace/working/zpl-source/source/debug/lib/libbase.a(thread.o) (pqueue_create)
/home/zhurish/workspace/working/zpl-source/source/debug/lib/libnsm.a(moduletable.o)
                              os_main.o (pl_module_name_show)
/home/zhurish/workspace/working/zpl-source/source/debug/lib/libnsm.a(nsm_main.o)
                              /home/zhurish/workspace/working/zpl-source/source/debug/lib/libnsm.a(moduletable.o) (module_list_nsm)
/home/zhurish/workspace/working/zpl-source/source/debug/lib/libnsm.a(nsm_interface.o)
                              /home/zhurish/workspace/working/zpl-source/source/debug/lib/libnsm.a(nsm_main.o) (nsm_interface_init)
/home/zhurish/workspace/working/zpl-source/source/debug/lib/libnsm.a(nsm_8021x.o)
                              /home/zhurish/workspace/working/zpl-source/source/debug/lib/libnsm.a(nsm_main.o) (nsm_dot1x_init)
/home/zhurish/workspace/working/zpl-source/source/debug/lib/libnsm.a(nsm_arp.o)
                              /home/zhurish/workspace/working/zpl-source/source/debug/lib/libnsm.a(nsm_main.o) (nsm_ip_arp_init)
/home/zhurish/workspace/working/zpl-source/source/debug/lib/libnsm.a(nsm_bridge.o)
                              /home/zhurish/workspace/working/zpl-source/source/debug/lib/libnsm.a(nsm_main.o) (nsm_bridge_init)
/home/zhurish/workspace/working/zpl-source/source/debug/lib/libnsm.a(nsm_dns.o)
                              /home/zhurish/workspace/working/zpl-source/source/debug/lib/libnsm.a(nsm_main.o) (nsm_ip_dns_init)
/home/zhurish/workspace/working/zpl-source/source/debug/lib/libnsm.a(nsm_dos.o)
                              /home/zhurish/workspace/working/zpl-source/source/debug/lib/libnsm.a(nsm_main.o) (nsm_dos_init)
/home/zhurish/workspace/working/zpl-source/source/debug/lib/libnsm.a(nsm_firewalld.o)
                              /home/zhurish/workspace/working/zpl-source/source/debug/lib/libnsm.a(nsm_main.o) (nsm_firewall_init)
/home/zhurish/workspace/working/zpl-source/source/debug/lib/libnsm.a(nsm_mac.o)
                              /home/zhurish/workspace/working/zpl-source/source/debug/lib/libnsm.a(nsm_main.o) (nsm_mac_init)
/home/zhurish/workspace/working/zpl-source/source/debug/lib/libnsm.a(nsm_vlan.o)
                              /home/zhurish/workspace/working/zpl-source/source/debug/lib/libnsm.a(nsm_main.o) (nsm_vlan_init)
/home/zhurish/workspace/working/zpl-source/source/debug/lib/libnsm.a(nsm_qos.o)
                              /home/zhurish/workspace/working/zpl-source/source/debug/lib/libnsm.a(nsm_main.o) (nsm_qos_init)
/home/zhurish/workspace/working/zpl-source/source/debug/lib/libnsm.a(nsm_qos_acl.o)
                              /home/zhurish/workspace/working/zpl-source/source/debug/lib/libnsm.a(nsm_qos.o) (qos_service_policy_lookup)
/home/zhurish/workspace/working/zpl-source/source/debug/lib/libnsm.a(nsm_trunk.o)
                              /home/zhurish/workspace/working/zpl-source/source/debug/lib/libnsm.a(nsm_main.o) (nsm_trunk_init)
/home/zhurish/workspace/working/zpl-source/source/debug/lib/libnsm.a(nsm_mirror.o)
                              /home/zhurish/workspace/working/zpl-source/source/debug/lib/libnsm.a(nsm_main.o) (nsm_mirror_init)
/home/zhurish/workspace/working/zpl-source/source/debug/lib/libnsm.a(nsm_tunnel.o)
                              /home/zhurish/workspace/working/zpl-source/source/debug/lib/libnsm.a(nsm_interface.o) (nsm_tunnel_mtu_set_api)
/home/zhurish/workspace/working/zpl-source/source/debug/lib/libnsm.a(nsm_serial.o)
                              /home/zhurish/workspace/working/zpl-source/source/debug/lib/libnsm.a(nsm_main.o) (nsm_serial_init)
/home/zhurish/workspace/working/zpl-source/source/debug/lib/libnsm.a(nsm_ppp.o)
                              /home/zhurish/workspace/working/zpl-source/source/debug/lib/libnsm.a(nsm_main.o) (nsm_ppp_init)
/home/zhurish/workspace/working/zpl-source/source/debug/lib/libnsm.a(nsm_security.o)
                              /home/zhurish/workspace/working/zpl-source/source/debug/lib/libnsm.a(nsm_main.o) (nsm_security_init)
/home/zhurish/workspace/working/zpl-source/source/debug/lib/libnsm.a(nsm_vlaneth.o)
                              /home/zhurish/workspace/working/zpl-source/source/debug/lib/libnsm.a(nsm_main.o) (nsm_vlaneth_init)
/home/zhurish/workspace/working/zpl-source/source/debug/lib/libnsm.a(cmd_interface.o)
                              /home/zhurish/workspace/working/zpl-source/source/debug/lib/libnsm.a(nsm_main.o) (cmd_interface_init)
/home/zhurish/workspace/working/zpl-source/source/debug/lib/libnsm.a(cmd_routerid.o)
                              /home/zhurish/workspace/working/zpl-source/source/debug/lib/libnsm.a(nsm_main.o) (cmd_router_id_init)
/home/zhurish/workspace/working/zpl-source/source/debug/lib/libnsm.a(cmd_port.o)
                              /home/zhurish/workspace/working/zpl-source/source/debug/lib/libnsm.a(nsm_main.o) (cmd_port_init)
/home/zhurish/workspace/working/zpl-source/source/debug/lib/libnsm.a(cmd_route.o)
                              /home/zhurish/workspace/working/zpl-source/source/debug/lib/libnsm.a(nsm_main.o) (cmd_route_init)
/home/zhurish/workspace/working/zpl-source/source/debug/lib/libnsm.a(cmd_dot1x.o)
                              /home/zhurish/workspace/working/zpl-source/source/debug/lib/libnsm.a(nsm_main.o) (cmd_dot1x_init)
/home/zhurish/workspace/working/zpl-source/source/debug/lib/libnsm.a(cmd_arp.o)
                              /home/zhurish/workspace/working/zpl-source/source/debug/lib/libnsm.a(nsm_main.o) (cmd_arp_init)
/home/zhurish/workspace/working/zpl-source/source/debug/lib/libnsm.a(cmd_bridge.o)
                              /home/zhurish/workspace/working/zpl-source/source/debug/lib/libnsm.a(nsm_main.o) (cmd_bridge_init)
/home/zhurish/workspace/working/zpl-source/source/debug/lib/libnsm.a(cmd_dns.o)
                              /home/zhurish/workspace/working/zpl-source/source/debug/lib/libnsm.a(nsm_main.o) (cmd_dns_init)
/home/zhurish/workspace/working/zpl-source/source/debug/lib/libnsm.a(cmd_dos.o)
                              /home/zhurish/workspace/working/zpl-source/source/debug/lib/libnsm.a(nsm_main.o) (cmd_dos_init)
/home/zhurish/workspace/working/zpl-source/source/debug/lib/libnsm.a(cmd_mac.o)
                              /home/zhurish/workspace/working/zpl-source/source/debug/lib/libnsm.a(nsm_main.o) (cmd_mac_init)
/home/zhurish/workspace/working/zpl-source/source/debug/lib/libnsm.a(cmd_vlan.o)
                              /home/zhurish/workspace/working/zpl-source/source/debug/lib/libnsm.a(nsm_main.o) (cmd_vlan_init)
/home/zhurish/workspace/working/zpl-source/source/debug/lib/libnsm.a(cmd_qos.o)
                              /home/zhurish/workspace/working/zpl-source/source/debug/lib/libnsm.a(nsm_main.o) (cmd_qos_init)
/home/zhurish/workspace/working/zpl-source/source/debug/lib/libnsm.a(cmd_qos_acl.o)
                              /home/zhurish/workspace/working/zpl-source/source/debug/lib/libnsm.a(cmd_qos.o) (cmd_qos_acl_init)
/home/zhurish/workspace/working/zpl-source/source/debug/lib/libnsm.a(cmd_trunk.o)
                              /home/zhurish/workspace/working/zpl-source/source/debug/lib/libnsm.a(nsm_main.o) (cmd_trunk_init)
/home/zhurish/workspace/working/zpl-source/source/debug/lib/libnsm.a(cmd_mirror.o)
                              /home/zhurish/workspace/working/zpl-source/source/debug/lib/libnsm.a(nsm_main.o) (cmd_mirror_init)
/home/zhurish/workspace/working/zpl-source/source/debug/lib/libnsm.a(cmd_tunnel.o)
                              /home/zhurish/workspace/working/zpl-source/source/debug/lib/libnsm.a(nsm_main.o) (cmd_tunnel_init)
/home/zhurish/workspace/working/zpl-source/source/debug/lib/libnsm.a(cmd_serial.o)
                              /home/zhurish/workspace/working/zpl-source/source/debug/lib/libnsm.a(nsm_main.o) (cmd_serial_init)
/home/zhurish/workspace/working/zpl-source/source/debug/lib/libnsm.a(cmd_ppp.o)
                              /home/zhurish/workspace/working/zpl-source/source/debug/lib/libnsm.a(nsm_main.o) (cmd_ppp_init)
/home/zhurish/workspace/working/zpl-source/source/debug/lib/libnsm.a(nsm_halpal.o)
                              /home/zhurish/workspace/working/zpl-source/source/debug/lib/libnsm.a(nsm_interface.o) (nsm_halpal_interface_add)
/home/zhurish/workspace/working/zpl-source/source/debug/lib/libnsm.a(nsm_pal.o)
                              /home/zhurish/workspace/working/zpl-source/source/debug/lib/libnsm.a(nsm_serial.o) (nsm_pal_interface_add)
/home/zhurish/workspace/working/zpl-source/source/debug/lib/libos.a(os_ipstack.o)
                              /home/zhurish/workspace/working/zpl-source/source/debug/lib/libbase.a(cmd_host.o) (ipstack_init)
/home/zhurish/workspace/working/zpl-source/source/debug/lib/libos.a(os_job.o)
                              /home/zhurish/workspace/working/zpl-source/source/debug/lib/libnsm.a(nsm_arp.o) (os_job_add_entry)
/home/zhurish/workspace/working/zpl-source/source/debug/lib/libos.a(os_list.o)
                              /home/zhurish/workspace/working/zpl-source/source/debug/lib/libnsm.a(nsm_8021x.o) (lstInit)
/home/zhurish/workspace/working/zpl-source/source/debug/lib/libos.a(os_sem.o)
                              /home/zhurish/workspace/working/zpl-source/source/debug/lib/libbase.a(host.o) (os_sem_init)
/home/zhurish/workspace/working/zpl-source/source/debug/lib/libos.a(os_task.o)
                              os_main.o (os_limit_stack_size)
/home/zhurish/workspace/working/zpl-source/source/debug/lib/libos.a(os_time.o)
                              /home/zhurish/workspace/working/zpl-source/source/debug/lib/libbase.a(log.o) (os_msleep)
/home/zhurish/workspace/working/zpl-source/source/debug/lib/libos.a(os_util.o)
                              /home/zhurish/workspace/working/zpl-source/source/debug/lib/libbase.a(log.o) (os_pipe_create)
/home/zhurish/workspace/working/zpl-source/source/debug/lib/libos.a(os_socket.o)
                              /home/zhurish/workspace/working/zpl-source/source/debug/lib/libbase.a(log.o) (os_select_wait)
/home/zhurish/workspace/working/zpl-source/source/debug/lib/libos.a(os_process.o)
                              /home/zhurish/workspace/working/zpl-source/source/debug/lib/libnsm.a(nsm_dns.o) (super_system)
/home/zhurish/workspace/working/zpl-source/source/debug/lib/libos.a(os_file.o)
                              /home/zhurish/workspace/working/zpl-source/source/debug/lib/libbase.a(host.o) (os_read_file)
/home/zhurish/workspace/working/zpl-source/source/debug/lib/libos.a(os_signal.o)
                              /home/zhurish/workspace/working/zpl-source/source/debug/lib/libos.a(os_time.o) (os_register_signal)
/home/zhurish/workspace/working/zpl-source/source/debug/lib/libos.a(os_backtrace.o)
                              /home/zhurish/workspace/working/zpl-source/source/debug/lib/libbase.a(thread.o) (zpl_backtrace_symb_set)
/home/zhurish/workspace/working/zpl-source/source/debug/lib/libos.a(libnetpro.o)
                              /home/zhurish/workspace/working/zpl-source/source/debug/lib/libnsm.a(cmd_qos_acl.o) (eth_protocol_type)
/home/zhurish/workspace/working/zpl-source/source/debug/lib/libos.a(zpl_errno.o)
                              /home/zhurish/workspace/working/zpl-source/source/debug/lib/libbase.a(log.o) (ipstack_strerror)
/home/zhurish/workspace/working/zpl-source/source/debug/lib/libpal.a(pal_driver.o)
                              /home/zhurish/workspace/working/zpl-source/source/debug/lib/libnsm.a(moduletable.o) (module_list_pal)
/home/zhurish/workspace/working/zpl-source/source/debug/lib/libpal.a(kernel_packet.o)
                              /home/zhurish/workspace/working/zpl-source/source/debug/lib/libpal.a(pal_driver.o) (kernel_packet_init)
/home/zhurish/workspace/working/zpl-source/source/debug/lib/libpal.a(kernel_arp.o)
                              /home/zhurish/workspace/working/zpl-source/source/debug/lib/libpal.a(pal_driver.o) (ip_arp_stack_init)
/home/zhurish/workspace/working/zpl-source/source/debug/lib/libpal.a(kernel_ipforward.o)
                              /home/zhurish/workspace/working/zpl-source/source/debug/lib/libpal.a(pal_driver.o) (_ipkernel_ipforward)
/home/zhurish/workspace/working/zpl-source/source/debug/lib/libpal.a(kernel_driver.o)
                              /home/zhurish/workspace/working/zpl-source/source/debug/lib/libpal.a(pal_driver.o) (ip_ifp_stack_init)
/home/zhurish/workspace/working/zpl-source/source/debug/lib/libpal.a(kernel_ioctl.o)
                              /home/zhurish/workspace/working/zpl-source/source/debug/lib/libpal.a(kernel_arp.o) (_ipkernel_if_ioctl)
/home/zhurish/workspace/working/zpl-source/source/debug/lib/libpal.a(kernel_vrf.o)
                              /home/zhurish/workspace/working/zpl-source/source/debug/lib/libpal.a(kernel_driver.o) (_ipkernel_vrf_enable)
/home/zhurish/workspace/working/zpl-source/source/debug/lib/libpal.a(kernel_nladdress.o)
                              /home/zhurish/workspace/working/zpl-source/source/debug/lib/libpal.a(kernel_ioctl.o) (_netlink_address_add_ipv4)
/home/zhurish/workspace/working/zpl-source/source/debug/lib/libpal.a(kernel_nliface.o)
                              /home/zhurish/workspace/working/zpl-source/source/debug/lib/libpal.a(kernel_driver.o) (_netlink_create_interface)
/home/zhurish/workspace/working/zpl-source/source/debug/lib/libpal.a(kernel_firewalld.o)
                              /home/zhurish/workspace/working/zpl-source/source/debug/lib/libpal.a(kernel_driver.o) (_ipkernel_firewall_portmap_rule_set)
/home/zhurish/workspace/working/zpl-source/source/debug/lib/libpal.a(kernel_netlink.o)
                              /home/zhurish/workspace/working/zpl-source/source/debug/lib/libpal.a(kernel_nladdress.o) (_netlink_addattr_l)
/home/zhurish/workspace/working/zpl-source/source/debug/lib/libproduct.a(hal_client.o)
                              /home/zhurish/workspace/working/zpl-source/source/debug/lib/libnsm.a(moduletable.o) (module_list_bsp)
/home/zhurish/workspace/working/zpl-source/source/debug/lib/libproduct.a(bsp_driver.o)
                              /home/zhurish/workspace/working/zpl-source/source/debug/lib/libnsm.a(moduletable.o) (module_list_sdk)
/home/zhurish/workspace/working/zpl-source/source/debug/lib/libproduct.a(bsp_global.o)
                              /home/zhurish/workspace/working/zpl-source/source/debug/lib/libproduct.a(bsp_driver.o) (bsp_global_module_handle)
/home/zhurish/workspace/working/zpl-source/source/debug/lib/libproduct.a(bsp_port.o)
                              /home/zhurish/workspace/working/zpl-source/source/debug/lib/libproduct.a(bsp_driver.o) (bsp_port_module_handle)
/home/zhurish/workspace/working/zpl-source/source/debug/lib/libproduct.a(bsp_mstp.o)
                              /home/zhurish/workspace/working/zpl-source/source/debug/lib/libproduct.a(bsp_driver.o) (bsp_mstp_module_handle)
/home/zhurish/workspace/working/zpl-source/source/debug/lib/libproduct.a(bsp_8021x.o)
                              /home/zhurish/workspace/working/zpl-source/source/debug/lib/libproduct.a(bsp_driver.o) (bsp_8021x_module_handle)
/home/zhurish/workspace/working/zpl-source/source/debug/lib/libproduct.a(bsp_dos.o)
                              /home/zhurish/workspace/working/zpl-source/source/debug/lib/libproduct.a(bsp_driver.o) (bsp_dos_module_handle)
/home/zhurish/workspace/working/zpl-source/source/debug/lib/libproduct.a(bsp_mac.o)
                              /home/zhurish/workspace/working/zpl-source/source/debug/lib/libproduct.a(bsp_driver.o) (bsp_mac_module_handle)
/home/zhurish/workspace/working/zpl-source/source/debug/lib/libproduct.a(bsp_vlan.o)
                              /home/zhurish/workspace/working/zpl-source/source/debug/lib/libproduct.a(bsp_driver.o) (bsp_vlan_module_handle)
/home/zhurish/workspace/working/zpl-source/source/debug/lib/libproduct.a(bsp_qinq.o)
                              /home/zhurish/workspace/working/zpl-source/source/debug/lib/libproduct.a(bsp_driver.o) (bsp_qinq_module_handle)
/home/zhurish/workspace/working/zpl-source/source/debug/lib/libproduct.a(bsp_qos.o)
                              /home/zhurish/workspace/working/zpl-source/source/debug/lib/libproduct.a(bsp_driver.o) (bsp_qos_module_handle)
/home/zhurish/workspace/working/zpl-source/source/debug/lib/libproduct.a(bsp_trunk.o)
                              /home/zhurish/workspace/working/zpl-source/source/debug/lib/libproduct.a(bsp_driver.o) (bsp_trunk_module_handle)
/home/zhurish/workspace/working/zpl-source/source/debug/lib/libproduct.a(bsp_mirror.o)
                              /home/zhurish/workspace/working/zpl-source/source/debug/lib/libproduct.a(bsp_driver.o) (bsp_mirror_module_handle)
/home/zhurish/workspace/working/zpl-source/source/debug/lib/libproduct.a(bsp_cpu.o)
                              /home/zhurish/workspace/working/zpl-source/source/debug/lib/libproduct.a(bsp_driver.o) (bsp_cpu_module_handle)
/home/zhurish/workspace/working/zpl-source/source/debug/lib/librtpl.a(nsm_rib.o)
                              /home/zhurish/workspace/working/zpl-source/source/debug/lib/libnsm.a(cmd_route.o) (nexthop_has_fib_child)
/home/zhurish/workspace/working/zpl-source/source/debug/lib/librtpl.a(router-id.o)
                              /home/zhurish/workspace/working/zpl-source/source/debug/lib/libnsm.a(cmd_routerid.o) (router_id_get)
/home/zhurish/workspace/working/zpl-source/source/debug/lib/librtpl.a(nsm_redistribute.o)
                              /home/zhurish/workspace/working/zpl-source/source/debug/lib/librtpl.a(nsm_rib.o) (redistribute_add)
/home/zhurish/workspace/working/zpl-source/source/debug/lib/librtpl.a(nsm_zserv.o)
                              /home/zhurish/workspace/working/zpl-source/source/debug/lib/libnsm.a(nsm_main.o) (nsm_srv)
/home/zhurish/workspace/working/zpl-source/source/debug/lib/librtpl.a(nsm_rnh.o)
                              /home/zhurish/workspace/working/zpl-source/source/debug/lib/librtpl.a(nsm_zserv.o) (zebra_add_rnh)
/home/zhurish/workspace/working/zpl-source/source/debug/lib/libsdk.a(sdk_driver.o)
                              /home/zhurish/workspace/working/zpl-source/source/debug/lib/libproduct.a(bsp_driver.o) (sdk_driver_init)
/home/zhurish/workspace/working/zpl-source/source/debug/lib/libsdk.a(b53_mac_tbl.o)
                              /home/zhurish/workspace/working/zpl-source/source/debug/lib/libsdk.a(sdk_driver.o) (b53125_mac_address_read)
/home/zhurish/workspace/working/zpl-source/source/debug/lib/libsdk.a(b53_driver.o)
                              /home/zhurish/workspace/working/zpl-source/source/debug/lib/libsdk.a(sdk_driver.o) (b53125_device_probe)
/home/zhurish/workspace/working/zpl-source/source/debug/lib/libsdk.a(b53_mdio.o)
                              /home/zhurish/workspace/working/zpl-source/source/debug/lib/libsdk.a(b53_driver.o) (__mdio_read)
/home/zhurish/workspace/working/zpl-source/source/debug/lib/libsdk.a(b53_global.o)
                              /home/zhurish/workspace/working/zpl-source/source/debug/lib/libsdk.a(b53_driver.o) (b53_brcm_hdr_setup)
/home/zhurish/workspace/working/zpl-source/source/debug/lib/libsdk.a(b53_dos.o)
                              /home/zhurish/workspace/working/zpl-source/source/debug/lib/libsdk.a(b53_driver.o) (b53125_dos_init)
/home/zhurish/workspace/working/zpl-source/source/debug/lib/libsdk.a(b53_mirror.o)
                              /home/zhurish/workspace/working/zpl-source/source/debug/lib/libsdk.a(b53_driver.o) (b53125_mirror_init)
/home/zhurish/workspace/working/zpl-source/source/debug/lib/libsdk.a(b53_port.o)
                              /home/zhurish/workspace/working/zpl-source/source/debug/lib/libsdk.a(b53_driver.o) (b53125_enable_learning)
/home/zhurish/workspace/working/zpl-source/source/debug/lib/libsdk.a(b53_stp.o)
                              /home/zhurish/workspace/working/zpl-source/source/debug/lib/libsdk.a(b53_driver.o) (b53125_mstp_init)
/home/zhurish/workspace/working/zpl-source/source/debug/lib/libsdk.a(b53_trunk.o)
                              /home/zhurish/workspace/working/zpl-source/source/debug/lib/libsdk.a(b53_driver.o) (b53_trunk_init)
/home/zhurish/workspace/working/zpl-source/source/debug/lib/libsdk.a(b53_vlan.o)
                              /home/zhurish/workspace/working/zpl-source/source/debug/lib/libsdk.a(b53_stp.o) (b53125_vlan_mstp_id)
/home/zhurish/workspace/working/zpl-source/source/debug/lib/libsdk.a(b53_qos.o)
                              /home/zhurish/workspace/working/zpl-source/source/debug/lib/libsdk.a(b53_driver.o) (b53125_qos_init)
/home/zhurish/workspace/working/zpl-source/source/debug/lib/libsdk.a(b53_rate.o)
                              /home/zhurish/workspace/working/zpl-source/source/debug/lib/libsdk.a(b53_qos.o) (b53125_strom_rate)
/home/zhurish/workspace/working/zpl-source/source/debug/lib/libsdk.a(b53_eap.o)
                              /home/zhurish/workspace/working/zpl-source/source/debug/lib/libsdk.a(b53_driver.o) (b53125_eap_init)
/home/zhurish/workspace/working/zpl-source/source/debug/lib/libsdk.a(b53_phy.o)
                              /home/zhurish/workspace/working/zpl-source/source/debug/lib/libsdk.a(b53_port.o) (b53125_phy_loopback)
/home/zhurish/workspace/working/zpl-source/source/debug/lib/libsdk.a(b53_cpu.o)
                              /home/zhurish/workspace/working/zpl-source/source/debug/lib/libsdk.a(b53_driver.o) (b53125_imp_enable)
/home/zhurish/workspace/working/zpl-source/source/debug/lib/libshell.a(vty_user.o)
                              /home/zhurish/workspace/working/zpl-source/source/debug/lib/libbase.a(cmd_host.o) (vty_user_encrypt_enable)
/home/zhurish/workspace/working/zpl-source/source/debug/lib/libshell.a(vty.o)
                              /home/zhurish/workspace/working/zpl-source/source/debug/lib/libnsm.a(moduletable.o) (module_list_console)
/home/zhurish/workspace/working/zpl-source/source/debug/lib/libstartup.a(os_start.o)
                              os_main.o (os_base_env_init)
/home/zhurish/workspace/working/zpl-source/source/debug/lib/libstartup.a(os_module.o)
                              /home/zhurish/workspace/working/zpl-source/source/debug/lib/libstartup.a(os_start.o) (os_module_init)
/home/zhurish/workspace/working/zpl-source/source/debug/lib/libstartup.a(os_test.o)
                              /home/zhurish/workspace/working/zpl-source/source/debug/lib/libstartup.a(os_module.o) (os_test)
/home/zhurish/workspace/working/zpl-source/source/debug/lib/libuci.a(os_uci.o)
                              /home/zhurish/workspace/working/zpl-source/source/debug/lib/libstartup.a(os_test.o) (os_uci_set_string)
/home/zhurish/workspace/working/zpl-source/source/debug/lib/libuci.a(delta.o)
                              /home/zhurish/workspace/working/zpl-source/source/debug/lib/libuci.a(os_uci.o) (uci_revert)
/home/zhurish/workspace/working/zpl-source/source/debug/lib/libuci.a(file.o)
                              /home/zhurish/workspace/working/zpl-source/source/debug/lib/libuci.a(delta.o) (uci_getln)
/home/zhurish/workspace/working/zpl-source/source/debug/lib/libuci.a(util.o)
                              /home/zhurish/workspace/working/zpl-source/source/debug/lib/libuci.a(delta.o) (uci_validate_str)
/home/zhurish/workspace/working/zpl-source/source/debug/lib/libuci.a(libuci.o)
                              /home/zhurish/workspace/working/zpl-source/source/debug/lib/libuci.a(delta.o) (uci_alloc_generic)
/home/zhurish/workspace/working/zpl-source/source/debug/lib/libbase.a(md5.o)
                              /home/zhurish/workspace/working/zpl-source/source/debug/lib/libshell.a(vty_user.o) (os_md5_init)
/home/zhurish/workspace/working/zpl-source/source/debug/lib/libbase.a(sockunion.o)
                              /home/zhurish/workspace/working/zpl-source/source/debug/lib/libshell.a(vty.o) (sockunion2str)
/home/zhurish/workspace/working/zpl-source/source/debug/lib/libbase.a(pid_output.o)
                              /home/zhurish/workspace/working/zpl-source/source/debug/lib/libstartup.a(os_start.o) (pid_output)
/home/zhurish/workspace/working/zpl-source/source/debug/lib/libbase.a(buffer.o)
                              /home/zhurish/workspace/working/zpl-source/source/debug/lib/librtpl.a(nsm_zserv.o) (buffer_new)
/home/zhurish/workspace/working/zpl-source/source/debug/lib/libbase.a(template.o)
                              /home/zhurish/workspace/working/zpl-source/source/debug/lib/libnsm.a(nsm_main.o) (nsm_template_init)
/home/zhurish/workspace/working/zpl-source/source/debug/lib/libbase.a(stream.o)
                              /home/zhurish/workspace/working/zpl-source/source/debug/lib/librtpl.a(nsm_zserv.o) (stream_new)
/home/zhurish/workspace/working/zpl-source/source/debug/lib/libbase.a(nexthop.o)
                              /home/zhurish/workspace/working/zpl-source/source/debug/lib/librtpl.a(nsm_rnh.o) (nexthop_same_no_recurse)
/home/zhurish/workspace/working/zpl-source/source/debug/lib/libbase.a(table.o)
                              /home/zhurish/workspace/working/zpl-source/source/debug/lib/librtpl.a(nsm_rib.o) (route_lock_node)
/home/zhurish/workspace/working/zpl-source/source/debug/lib/libbase.a(connected.o)
                              /home/zhurish/workspace/working/zpl-source/source/debug/lib/libnsm.a(nsm_interface.o) (connected_up_ipv4)
/home/zhurish/workspace/working/zpl-source/source/debug/lib/libbase.a(if.o)
                              /home/zhurish/workspace/working/zpl-source/source/debug/lib/libnsm.a(cmd_interface.o) (if_list_get)
/home/zhurish/workspace/working/zpl-source/source/debug/lib/libbase.a(nsm_vrf.o)
                              /home/zhurish/workspace/working/zpl-source/source/debug/lib/librtpl.a(nsm_zserv.o) (vrf_bitmap_init)
/home/zhurish/workspace/working/zpl-source/source/debug/lib/libbase.a(if_name.o)
                              /home/zhurish/workspace/working/zpl-source/source/debug/lib/libnsm.a(nsm_interface.o) (getkernelname)
/home/zhurish/workspace/working/zpl-source/source/debug/lib/libbase.a(nsm_event.o)
                              /home/zhurish/workspace/working/zpl-source/source/debug/lib/libnsm.a(nsm_interface.o) (nsm_event_register_api)
/home/zhurish/workspace/working/zpl-source/source/debug/lib/libbase.a(keychain.o)
                              /home/zhurish/workspace/working/zpl-source/source/debug/lib/libnsm.a(nsm_main.o) (keychain_init)
/home/zhurish/workspace/working/zpl-source/source/debug/lib/libbase.a(filter.o)
                              /home/zhurish/workspace/working/zpl-source/source/debug/lib/libnsm.a(nsm_qos_acl.o) (filter_type_str)
/home/zhurish/workspace/working/zpl-source/source/debug/lib/libbase.a(plist.o)
                              /home/zhurish/workspace/working/zpl-source/source/debug/lib/libnsm.a(nsm_main.o) (prefix_list_init)
/home/zhurish/workspace/working/zpl-source/source/debug/lib/libbase.a(cmd_log.o)
                              /home/zhurish/workspace/working/zpl-source/source/debug/lib/libstartup.a(os_start.o) (cmd_log_init)
/home/zhurish/workspace/working/zpl-source/source/debug/lib/libbase.a(cmd_memory.o)
                              /home/zhurish/workspace/working/zpl-source/source/debug/lib/libstartup.a(os_start.o) (cmd_memory_init)
/home/zhurish/workspace/working/zpl-source/source/debug/lib/libbase.a(jhash.o)
                              /home/zhurish/workspace/working/zpl-source/source/debug/lib/libbase.a(sockunion.o) (jhash2)
/home/zhurish/workspace/working/zpl-source/source/debug/lib/libbase.a(network.o)
                              /home/zhurish/workspace/working/zpl-source/source/debug/lib/libbase.a(stream.o) (readn)
/home/zhurish/workspace/working/zpl-source/source/debug/lib/libhal.a(hal_ipccmd.o)
                              /home/zhurish/workspace/working/zpl-source/source/debug/lib/libproduct.a(hal_client.o) (hal_module_cmd_name)
/home/zhurish/workspace/working/zpl-source/source/debug/lib/libhal.a(hal_ipcmsg.o)
                              /home/zhurish/workspace/working/zpl-source/source/debug/lib/libproduct.a(hal_client.o) (hal_ipcmsg_put)
/home/zhurish/workspace/working/zpl-source/source/debug/lib/libhal.a(hal_port.o)
                              /home/zhurish/workspace/working/zpl-source/source/debug/lib/libnsm.a(nsm_halpal.o) (hal_port_up)
/home/zhurish/workspace/working/zpl-source/source/debug/lib/libhal.a(hal_misc.o)
                              /home/zhurish/workspace/working/zpl-source/source/debug/lib/libhal.a(hal_port.o) (hal_jumbo_interface_enable)
/home/zhurish/workspace/working/zpl-source/source/debug/lib/libhal.a(hal_mstp.o)
                              /home/zhurish/workspace/working/zpl-source/source/debug/lib/libnsm.a(nsm_halpal.o) (hal_stp_state)
/home/zhurish/workspace/working/zpl-source/source/debug/lib/libhal.a(hal_dos.o)
                              /home/zhurish/workspace/working/zpl-source/source/debug/lib/libnsm.a(nsm_dos.o) (hal_dos_enable)
/home/zhurish/workspace/working/zpl-source/source/debug/lib/libhal.a(hal_mac.o)
                              /home/zhurish/workspace/working/zpl-source/source/debug/lib/libnsm.a(nsm_mac.o) (hal_mac_age)
/home/zhurish/workspace/working/zpl-source/source/debug/lib/libhal.a(hal_vlan.o)
                              /home/zhurish/workspace/working/zpl-source/source/debug/lib/libnsm.a(nsm_vlan.o) (hal_vlan_enable)
/home/zhurish/workspace/working/zpl-source/source/debug/lib/libhal.a(hal_trunk.o)
                              /home/zhurish/workspace/working/zpl-source/source/debug/lib/libnsm.a(nsm_trunk.o) (hal_trunk_enable)
/home/zhurish/workspace/working/zpl-source/source/debug/lib/libhal.a(hal_mirror.o)
                              /home/zhurish/workspace/working/zpl-source/source/debug/lib/libnsm.a(nsm_mirror.o) (hal_mirror_enable)
/home/zhurish/workspace/working/zpl-source/source/debug/lib/libhal.a(hal_driver.o)
                              /home/zhurish/workspace/working/zpl-source/source/debug/lib/libnsm.a(moduletable.o) (module_list_hal)
/home/zhurish/workspace/working/zpl-source/source/debug/lib/libhal.a(hal_test.o)
                              /home/zhurish/workspace/working/zpl-source/source/debug/lib/libstartup.a(os_module.o) (hal_test_init)
/home/zhurish/workspace/working/zpl-source/source/debug/lib/libhal.a(hal_global.o)
                              /home/zhurish/workspace/working/zpl-source/source/debug/lib/libhal.a(hal_test.o) (hal_switch_mode)
/home/zhurish/workspace/working/zpl-source/source/debug/lib/libhal.a(hal_ipcsrv.o)
                              /home/zhurish/workspace/working/zpl-source/source/debug/lib/libhal.a(hal_ipcmsg.o) (hal_ipcsrv_send_ipcmsg)
/home/zhurish/workspace/working/zpl-source/source/debug/lib/libipcbc.a(if_manage.o)
                              /home/zhurish/workspace/working/zpl-source/source/debug/lib/libstartup.a(os_start.o) (bsp_usp_module_init)
/home/zhurish/workspace/working/zpl-source/source/debug/lib/libipcbc.a(bmgt.o)
                              /home/zhurish/workspace/working/zpl-source/source/debug/lib/libipcbc.a(if_manage.o) (_bmgt_debug)
/home/zhurish/workspace/working/zpl-source/source/debug/lib/libipcbc.a(if_ktest.o)
                              /home/zhurish/workspace/working/zpl-source/source/debug/lib/libipcbc.a(if_manage.o) (if_ktest_init)
/home/zhurish/workspace/working/zpl-source/source/debug/lib/libnsm.a(nsm_debug.o)
                              /home/zhurish/workspace/working/zpl-source/source/debug/lib/librtpl.a(nsm_redistribute.o) (zebra_debug_event)
/home/zhurish/workspace/working/zpl-source/source/debug/lib/libos.a(os_nvram.o)
                              /home/zhurish/workspace/working/zpl-source/source/debug/lib/libstartup.a(os_start.o) (os_nvram_env_init)
/home/zhurish/workspace/working/zpl-source/source/debug/lib/libos.a(tty_com.o)
                              /home/zhurish/workspace/working/zpl-source/source/debug/lib/libshell.a(vty.o) (tty_com_open)
/home/zhurish/workspace/working/zpl-source/source/debug/lib/libos.a(cmd_os.o)
                              /home/zhurish/workspace/working/zpl-source/source/debug/lib/libstartup.a(os_start.o) (cmd_os_init)
/home/zhurish/workspace/working/zpl-source/source/debug/lib/libos.a(cmd_nvram_env.o)
                              /home/zhurish/workspace/working/zpl-source/source/debug/lib/libstartup.a(os_start.o) (cmd_nvram_env_init)
/home/zhurish/workspace/working/zpl-source/source/debug/lib/libos.a(os_message.o)
                              /home/zhurish/workspace/working/zpl-source/source/debug/lib/libshell.a(vty.o) (zpl_osmsg_new)
/home/zhurish/workspace/working/zpl-source/source/debug/lib/libshell.a(cmd_vty.o)
                              /home/zhurish/workspace/working/zpl-source/source/debug/lib/libstartup.a(os_start.o) (cmd_vty_init)
/home/zhurish/workspace/working/zpl-source/source/debug/lib/libshell.a(cmd_user_vty.o)
                              /home/zhurish/workspace/working/zpl-source/source/debug/lib/libstartup.a(os_start.o) (cmd_vty_user_init)
/opt/gcc-linaro-7.5.0-arm-linux-gnueabihf/bin/../arm-linux-gnueabihf/libc/usr/lib/libc_nonshared.a(elf-init.oS)
                              /opt/gcc-linaro-7.5.0-arm-linux-gnueabihf/bin/../arm-linux-gnueabihf/libc/usr/lib/crt1.o (__libc_csu_init)
/opt/gcc-linaro-7.5.0-arm-linux-gnueabihf/bin/../arm-linux-gnueabihf/libc/usr/lib/libc_nonshared.a(stat.oS)
                              /home/zhurish/workspace/working/zpl-source/source/debug/lib/libbase.a(log.o) (stat)

As-needed library included to satisfy reference by file (symbol)

ld-linux-armhf.so.3           /home/zhurish/workspace/working/zpl-source/source/debug/lib/libbase.a(log.o) (__stack_chk_guard@@GLIBC_2.4)

Allocating common symbols
Common symbol       size              file

sdk_maccb           0x14              /home/zhurish/workspace/working/zpl-source/source/debug/lib/libproduct.a(bsp_mac.o)
zebra_debug_nht     0x4               /home/zhurish/workspace/working/zpl-source/source/debug/lib/libnsm.a(nsm_debug.o)
sdk_global          0x20              /home/zhurish/workspace/working/zpl-source/source/debug/lib/libproduct.a(bsp_global.o)
keychain_list       0x4               /home/zhurish/workspace/working/zpl-source/source/debug/lib/libbase.a(keychain.o)
__msdkdriver        0x4               /home/zhurish/workspace/working/zpl-source/source/debug/lib/libsdk.a(sdk_driver.o)
os_sigproc_tbl      0x310             /home/zhurish/workspace/working/zpl-source/source/debug/lib/libos.a(os_signal.o)
sdk_vlan            0x34              /home/zhurish/workspace/working/zpl-source/source/debug/lib/libproduct.a(bsp_vlan.o)
__packed            0x6               os_main.o
sdk_trunk           0x14              /home/zhurish/workspace/working/zpl-source/source/debug/lib/libproduct.a(bsp_trunk.o)
cli_shell           0x10c             /home/zhurish/workspace/working/zpl-source/source/debug/lib/libshell.a(vty.o)
total_cpu           0x18              /home/zhurish/workspace/working/zpl-source/source/debug/lib/libos.a(os_task.o)
proto_rm            0x190             /home/zhurish/workspace/working/zpl-source/source/debug/lib/libnsm.a(cmd_route.o)
_ipcsrv             0x40              /home/zhurish/workspace/working/zpl-source/source/debug/lib/libhal.a(hal_ipcsrv.o)
zebra_debug_event   0x4               /home/zhurish/workspace/working/zpl-source/source/debug/lib/libnsm.a(nsm_debug.o)
bsp_driver          0x28              /home/zhurish/workspace/working/zpl-source/source/debug/lib/libproduct.a(bsp_driver.o)
sdk_8021x_cb        0x10              /home/zhurish/workspace/working/zpl-source/source/debug/lib/libproduct.a(bsp_8021x.o)
sdk_dos             0x10              /home/zhurish/workspace/working/zpl-source/source/debug/lib/libproduct.a(bsp_dos.o)
sdk_mstp            0x1c              /home/zhurish/workspace/working/zpl-source/source/debug/lib/libproduct.a(bsp_mstp.o)
_global_host        0x92              /home/zhurish/workspace/working/zpl-source/source/debug/lib/libbase.a(host.o)
zebra_debug_fpm     0x4               /home/zhurish/workspace/working/zpl-source/source/debug/lib/libnsm.a(nsm_debug.o)
token_cr            0x18              /home/zhurish/workspace/working/zpl-source/source/debug/lib/libbase.a(command.o)
sdk_mirror          0xc               /home/zhurish/workspace/working/zpl-source/source/debug/lib/libproduct.a(bsp_mirror.o)
main_data           0x2c              os_main.o
sdk_qinq            0xc               /home/zhurish/workspace/working/zpl-source/source/debug/lib/libproduct.a(bsp_qinq.o)
sdk_qos             0x30              /home/zhurish/workspace/working/zpl-source/source/debug/lib/libproduct.a(bsp_qos.o)
sdk_port            0x54              /home/zhurish/workspace/working/zpl-source/source/debug/lib/libproduct.a(bsp_port.o)
pal_stack           0xa8              /home/zhurish/workspace/working/zpl-source/source/debug/lib/libpal.a(pal_driver.o)
sdk_cpu_cb          0x14              /home/zhurish/workspace/working/zpl-source/source/debug/lib/libproduct.a(bsp_cpu.o)

Discarded input sections

 .note.GNU-stack
                0x0000000000000000        0x0 /opt/gcc-linaro-7.5.0-arm-linux-gnueabihf/bin/../arm-linux-gnueabihf/libc/usr/lib/crt1.o
 .note.GNU-stack
                0x0000000000000000        0x0 /opt/gcc-linaro-7.5.0-arm-linux-gnueabihf/bin/../arm-linux-gnueabihf/libc/usr/lib/crti.o
 .note.GNU-stack
                0x0000000000000000        0x0 /opt/gcc-linaro-7.5.0-arm-linux-gnueabihf/bin/../lib/gcc/arm-linux-gnueabihf/7.5.0/crtbegin.o
 .note.GNU-stack
                0x0000000000000000        0x0 os_main.o
 .note.GNU-stack
                0x0000000000000000        0x0 /home/zhurish/workspace/working/zpl-source/source/debug/lib/libbase.a(log.o)
 .note.GNU-stack
                0x0000000000000000        0x0 /home/zhurish/workspace/working/zpl-source/source/debug/lib/libbase.a(module.o)
 .note.GNU-stack
                0x0000000000000000        0x0 /home/zhurish/workspace/working/zpl-source/source/debug/lib/libbase.a(memory.o)
 .note.GNU-stack
                0x0000000000000000        0x0 /home/zhurish/workspace/working/zpl-source/source/debug/lib/libbase.a(memtypes.o)
 .note.GNU-stack
                0x0000000000000000        0x0 /home/zhurish/workspace/working/zpl-source/source/debug/lib/libbase.a(command.o)
 .note.GNU-stack
                0x0000000000000000        0x0 /home/zhurish/workspace/working/zpl-source/source/debug/lib/libbase.a(cli_node.o)
 .note.GNU-stack
                0x0000000000000000        0x0 /home/zhurish/workspace/working/zpl-source/source/debug/lib/libbase.a(host.o)
 .note.GNU-stack
                0x0000000000000000        0x0 /home/zhurish/workspace/working/zpl-source/source/debug/lib/libbase.a(cmd_host.o)
 .note.GNU-stack
                0x0000000000000000        0x0 /home/zhurish/workspace/working/zpl-source/source/debug/lib/libbase.a(hash.o)
 .note.GNU-stack
                0x0000000000000000        0x0 /home/zhurish/workspace/working/zpl-source/source/debug/lib/libbase.a(str.o)
 .note.GNU-stack
                0x0000000000000000        0x0 /home/zhurish/workspace/working/zpl-source/source/debug/lib/libbase.a(moduletypes.o)
 .note.GNU-stack
                0x0000000000000000        0x0 /home/zhurish/workspace/working/zpl-source/source/debug/lib/libbase.a(prefix.o)
 .note.GNU-stack
                0x0000000000000000        0x0 /home/zhurish/workspace/working/zpl-source/source/debug/lib/libbase.a(vector.o)
 .note.GNU-stack
                0x0000000000000000        0x0 /home/zhurish/workspace/working/zpl-source/source/debug/lib/libbase.a(workqueue.o)
 .note.GNU-stack
                0x0000000000000000        0x0 /home/zhurish/workspace/working/zpl-source/source/debug/lib/libbase.a(thread.o)
 .note.GNU-stack
                0x0000000000000000        0x0 /home/zhurish/workspace/working/zpl-source/source/debug/lib/libbase.a(linklist.o)
 .note.GNU-stack
                0x0000000000000000        0x0 /home/zhurish/workspace/working/zpl-source/source/debug/lib/libbase.a(pqueue.o)
 .note.GNU-stack
                0x0000000000000000        0x0 /home/zhurish/workspace/working/zpl-source/source/debug/lib/libnsm.a(moduletable.o)
 .note.GNU-stack
                0x0000000000000000        0x0 /home/zhurish/workspace/working/zpl-source/source/debug/lib/libnsm.a(nsm_main.o)
 .note.GNU-stack
                0x0000000000000000        0x0 /home/zhurish/workspace/working/zpl-source/source/debug/lib/libnsm.a(nsm_interface.o)
 .note.GNU-stack
                0x0000000000000000        0x0 /home/zhurish/workspace/working/zpl-source/source/debug/lib/libnsm.a(nsm_8021x.o)
 .note.GNU-stack
                0x0000000000000000        0x0 /home/zhurish/workspace/working/zpl-source/source/debug/lib/libnsm.a(nsm_arp.o)
 .note.GNU-stack
                0x0000000000000000        0x0 /home/zhurish/workspace/working/zpl-source/source/debug/lib/libnsm.a(nsm_bridge.o)
 .note.GNU-stack
                0x0000000000000000        0x0 /home/zhurish/workspace/working/zpl-source/source/debug/lib/libnsm.a(nsm_dns.o)
 .note.GNU-stack
                0x0000000000000000        0x0 /home/zhurish/workspace/working/zpl-source/source/debug/lib/libnsm.a(nsm_dos.o)
 .note.GNU-stack
                0x0000000000000000        0x0 /home/zhurish/workspace/working/zpl-source/source/debug/lib/libnsm.a(nsm_firewalld.o)
 .note.GNU-stack
                0x0000000000000000        0x0 /home/zhurish/workspace/working/zpl-source/source/debug/lib/libnsm.a(nsm_mac.o)
 .note.GNU-stack
                0x0000000000000000        0x0 /home/zhurish/workspace/working/zpl-source/source/debug/lib/libnsm.a(nsm_vlan.o)
 .note.GNU-stack
                0x0000000000000000        0x0 /home/zhurish/workspace/working/zpl-source/source/debug/lib/libnsm.a(nsm_qos.o)
 .note.GNU-stack
                0x0000000000000000        0x0 /home/zhurish/workspace/working/zpl-source/source/debug/lib/libnsm.a(nsm_qos_acl.o)
 .note.GNU-stack
                0x0000000000000000        0x0 /home/zhurish/workspace/working/zpl-source/source/debug/lib/libnsm.a(nsm_trunk.o)
 .note.GNU-stack
                0x0000000000000000        0x0 /home/zhurish/workspace/working/zpl-source/source/debug/lib/libnsm.a(nsm_mirror.o)
 .note.GNU-stack
                0x0000000000000000        0x0 /home/zhurish/workspace/working/zpl-source/source/debug/lib/libnsm.a(nsm_tunnel.o)
 .note.GNU-stack
                0x0000000000000000        0x0 /home/zhurish/workspace/working/zpl-source/source/debug/lib/libnsm.a(nsm_serial.o)
 .note.GNU-stack
                0x0000000000000000        0x0 /home/zhurish/workspace/working/zpl-source/source/debug/lib/libnsm.a(nsm_ppp.o)
 .note.GNU-stack
                0x0000000000000000        0x0 /home/zhurish/workspace/working/zpl-source/source/debug/lib/libnsm.a(nsm_security.o)
 .note.GNU-stack
                0x0000000000000000        0x0 /home/zhurish/workspace/working/zpl-source/source/debug/lib/libnsm.a(nsm_vlaneth.o)
 .note.GNU-stack
                0x0000000000000000        0x0 /home/zhurish/workspace/working/zpl-source/source/debug/lib/libnsm.a(cmd_interface.o)
 .note.GNU-stack
                0x0000000000000000        0x0 /home/zhurish/workspace/working/zpl-source/source/debug/lib/libnsm.a(cmd_routerid.o)
 .note.GNU-stack
                0x0000000000000000        0x0 /home/zhurish/workspace/working/zpl-source/source/debug/lib/libnsm.a(cmd_port.o)
 .note.GNU-stack
                0x0000000000000000        0x0 /home/zhurish/workspace/working/zpl-source/source/debug/lib/libnsm.a(cmd_route.o)
 .note.GNU-stack
                0x0000000000000000        0x0 /home/zhurish/workspace/working/zpl-source/source/debug/lib/libnsm.a(cmd_dot1x.o)
 .note.GNU-stack
                0x0000000000000000        0x0 /home/zhurish/workspace/working/zpl-source/source/debug/lib/libnsm.a(cmd_arp.o)
 .note.GNU-stack
                0x0000000000000000        0x0 /home/zhurish/workspace/working/zpl-source/source/debug/lib/libnsm.a(cmd_bridge.o)
 .note.GNU-stack
                0x0000000000000000        0x0 /home/zhurish/workspace/working/zpl-source/source/debug/lib/libnsm.a(cmd_dns.o)
 .note.GNU-stack
                0x0000000000000000        0x0 /home/zhurish/workspace/working/zpl-source/source/debug/lib/libnsm.a(cmd_dos.o)
 .note.GNU-stack
                0x0000000000000000        0x0 /home/zhurish/workspace/working/zpl-source/source/debug/lib/libnsm.a(cmd_mac.o)
 .note.GNU-stack
                0x0000000000000000        0x0 /home/zhurish/workspace/working/zpl-source/source/debug/lib/libnsm.a(cmd_vlan.o)
 .note.GNU-stack
                0x0000000000000000        0x0 /home/zhurish/workspace/working/zpl-source/source/debug/lib/libnsm.a(cmd_qos.o)
 .note.GNU-stack
                0x0000000000000000        0x0 /home/zhurish/workspace/working/zpl-source/source/debug/lib/libnsm.a(cmd_qos_acl.o)
 .note.GNU-stack
                0x0000000000000000        0x0 /home/zhurish/workspace/working/zpl-source/source/debug/lib/libnsm.a(cmd_trunk.o)
 .note.GNU-stack
                0x0000000000000000        0x0 /home/zhurish/workspace/working/zpl-source/source/debug/lib/libnsm.a(cmd_mirror.o)
 .note.GNU-stack
                0x0000000000000000        0x0 /home/zhurish/workspace/working/zpl-source/source/debug/lib/libnsm.a(cmd_tunnel.o)
 .note.GNU-stack
                0x0000000000000000        0x0 /home/zhurish/workspace/working/zpl-source/source/debug/lib/libnsm.a(cmd_serial.o)
 .note.GNU-stack
                0x0000000000000000        0x0 /home/zhurish/workspace/working/zpl-source/source/debug/lib/libnsm.a(cmd_ppp.o)
 .note.GNU-stack
                0x0000000000000000        0x0 /home/zhurish/workspace/working/zpl-source/source/debug/lib/libnsm.a(nsm_halpal.o)
 .note.GNU-stack
                0x0000000000000000        0x0 /home/zhurish/workspace/working/zpl-source/source/debug/lib/libnsm.a(nsm_pal.o)
 .note.GNU-stack
                0x0000000000000000        0x0 /home/zhurish/workspace/working/zpl-source/source/debug/lib/libos.a(os_ipstack.o)
 .note.GNU-stack
                0x0000000000000000        0x0 /home/zhurish/workspace/working/zpl-source/source/debug/lib/libos.a(os_job.o)
 .note.GNU-stack
                0x0000000000000000        0x0 /home/zhurish/workspace/working/zpl-source/source/debug/lib/libos.a(os_list.o)
 .note.GNU-stack
                0x0000000000000000        0x0 /home/zhurish/workspace/working/zpl-source/source/debug/lib/libos.a(os_sem.o)
 .note.GNU-stack
                0x0000000000000000        0x0 /home/zhurish/workspace/working/zpl-source/source/debug/lib/libos.a(os_task.o)
 .note.GNU-stack
                0x0000000000000000        0x0 /home/zhurish/workspace/working/zpl-source/source/debug/lib/libos.a(os_time.o)
 .note.GNU-stack
                0x0000000000000000        0x0 /home/zhurish/workspace/working/zpl-source/source/debug/lib/libos.a(os_util.o)
 .note.GNU-stack
                0x0000000000000000        0x0 /home/zhurish/workspace/working/zpl-source/source/debug/lib/libos.a(os_socket.o)
 .note.GNU-stack
                0x0000000000000000        0x0 /home/zhurish/workspace/working/zpl-source/source/debug/lib/libos.a(os_process.o)
 .note.GNU-stack
                0x0000000000000000        0x0 /home/zhurish/workspace/working/zpl-source/source/debug/lib/libos.a(os_file.o)
 .note.GNU-stack
                0x0000000000000000        0x0 /home/zhurish/workspace/working/zpl-source/source/debug/lib/libos.a(os_signal.o)
 .note.GNU-stack
                0x0000000000000000        0x0 /home/zhurish/workspace/working/zpl-source/source/debug/lib/libos.a(os_backtrace.o)
 .note.GNU-stack
                0x0000000000000000        0x0 /home/zhurish/workspace/working/zpl-source/source/debug/lib/libos.a(libnetpro.o)
 .note.GNU-stack
                0x0000000000000000        0x0 /home/zhurish/workspace/working/zpl-source/source/debug/lib/libos.a(zpl_errno.o)
 .note.GNU-stack
                0x0000000000000000        0x0 /home/zhurish/workspace/working/zpl-source/source/debug/lib/libpal.a(pal_driver.o)
 .note.GNU-stack
                0x0000000000000000        0x0 /home/zhurish/workspace/working/zpl-source/source/debug/lib/libpal.a(kernel_packet.o)
 .note.GNU-stack
                0x0000000000000000        0x0 /home/zhurish/workspace/working/zpl-source/source/debug/lib/libpal.a(kernel_arp.o)
 .note.GNU-stack
                0x0000000000000000        0x0 /home/zhurish/workspace/working/zpl-source/source/debug/lib/libpal.a(kernel_ipforward.o)
 .note.GNU-stack
                0x0000000000000000        0x0 /home/zhurish/workspace/working/zpl-source/source/debug/lib/libpal.a(kernel_driver.o)
 .note.GNU-stack
                0x0000000000000000        0x0 /home/zhurish/workspace/working/zpl-source/source/debug/lib/libpal.a(kernel_ioctl.o)
 .note.GNU-stack
                0x0000000000000000        0x0 /home/zhurish/workspace/working/zpl-source/source/debug/lib/libpal.a(kernel_vrf.o)
 .note.GNU-stack
                0x0000000000000000        0x0 /home/zhurish/workspace/working/zpl-source/source/debug/lib/libpal.a(kernel_nladdress.o)
 .note.GNU-stack
                0x0000000000000000        0x0 /home/zhurish/workspace/working/zpl-source/source/debug/lib/libpal.a(kernel_nliface.o)
 .note.GNU-stack
                0x0000000000000000        0x0 /home/zhurish/workspace/working/zpl-source/source/debug/lib/libpal.a(kernel_firewalld.o)
 .note.GNU-stack
                0x0000000000000000        0x0 /home/zhurish/workspace/working/zpl-source/source/debug/lib/libpal.a(kernel_netlink.o)
 .note.GNU-stack
                0x0000000000000000        0x0 /home/zhurish/workspace/working/zpl-source/source/debug/lib/libproduct.a(hal_client.o)
 .note.GNU-stack
                0x0000000000000000        0x0 /home/zhurish/workspace/working/zpl-source/source/debug/lib/libproduct.a(bsp_driver.o)
 .note.GNU-stack
                0x0000000000000000        0x0 /home/zhurish/workspace/working/zpl-source/source/debug/lib/libproduct.a(bsp_global.o)
 .note.GNU-stack
                0x0000000000000000        0x0 /home/zhurish/workspace/working/zpl-source/source/debug/lib/libproduct.a(bsp_port.o)
 .note.GNU-stack
                0x0000000000000000        0x0 /home/zhurish/workspace/working/zpl-source/source/debug/lib/libproduct.a(bsp_mstp.o)
 .note.GNU-stack
                0x0000000000000000        0x0 /home/zhurish/workspace/working/zpl-source/source/debug/lib/libproduct.a(bsp_8021x.o)
 .note.GNU-stack
                0x0000000000000000        0x0 /home/zhurish/workspace/working/zpl-source/source/debug/lib/libproduct.a(bsp_dos.o)
 .note.GNU-stack
                0x0000000000000000        0x0 /home/zhurish/workspace/working/zpl-source/source/debug/lib/libproduct.a(bsp_mac.o)
 .note.GNU-stack
                0x0000000000000000        0x0 /home/zhurish/workspace/working/zpl-source/source/debug/lib/libproduct.a(bsp_vlan.o)
 .note.GNU-stack
                0x0000000000000000        0x0 /home/zhurish/workspace/working/zpl-source/source/debug/lib/libproduct.a(bsp_qinq.o)
 .note.GNU-stack
                0x0000000000000000        0x0 /home/zhurish/workspace/working/zpl-source/source/debug/lib/libproduct.a(bsp_qos.o)
 .note.GNU-stack
                0x0000000000000000        0x0 /home/zhurish/workspace/working/zpl-source/source/debug/lib/libproduct.a(bsp_trunk.o)
 .note.GNU-stack
                0x0000000000000000        0x0 /home/zhurish/workspace/working/zpl-source/source/debug/lib/libproduct.a(bsp_mirror.o)
 .note.GNU-stack
                0x0000000000000000        0x0 /home/zhurish/workspace/working/zpl-source/source/debug/lib/libproduct.a(bsp_cpu.o)
 .note.GNU-stack
                0x0000000000000000        0x0 /home/zhurish/workspace/working/zpl-source/source/debug/lib/librtpl.a(nsm_rib.o)
 .note.GNU-stack
                0x0000000000000000        0x0 /home/zhurish/workspace/working/zpl-source/source/debug/lib/librtpl.a(router-id.o)
 .note.GNU-stack
                0x0000000000000000        0x0 /home/zhurish/workspace/working/zpl-source/source/debug/lib/librtpl.a(nsm_redistribute.o)
 .note.GNU-stack
                0x0000000000000000        0x0 /home/zhurish/workspace/working/zpl-source/source/debug/lib/librtpl.a(nsm_zserv.o)
 .note.GNU-stack
                0x0000000000000000        0x0 /home/zhurish/workspace/working/zpl-source/source/debug/lib/librtpl.a(nsm_rnh.o)
 .note.GNU-stack
                0x0000000000000000        0x0 /home/zhurish/workspace/working/zpl-source/source/debug/lib/libsdk.a(sdk_driver.o)
 .note.GNU-stack
                0x0000000000000000        0x0 /home/zhurish/workspace/working/zpl-source/source/debug/lib/libsdk.a(b53_mac_tbl.o)
 .note.GNU-stack
                0x0000000000000000        0x0 /home/zhurish/workspace/working/zpl-source/source/debug/lib/libsdk.a(b53_driver.o)
 .note.GNU-stack
                0x0000000000000000        0x0 /home/zhurish/workspace/working/zpl-source/source/debug/lib/libsdk.a(b53_mdio.o)
 .note.GNU-stack
                0x0000000000000000        0x0 /home/zhurish/workspace/working/zpl-source/source/debug/lib/libsdk.a(b53_global.o)
 .note.GNU-stack
                0x0000000000000000        0x0 /home/zhurish/workspace/working/zpl-source/source/debug/lib/libsdk.a(b53_dos.o)
 .note.GNU-stack
                0x0000000000000000        0x0 /home/zhurish/workspace/working/zpl-source/source/debug/lib/libsdk.a(b53_mirror.o)
 .note.GNU-stack
                0x0000000000000000        0x0 /home/zhurish/workspace/working/zpl-source/source/debug/lib/libsdk.a(b53_port.o)
 .note.GNU-stack
                0x0000000000000000        0x0 /home/zhurish/workspace/working/zpl-source/source/debug/lib/libsdk.a(b53_stp.o)
 .note.GNU-stack
                0x0000000000000000        0x0 /home/zhurish/workspace/working/zpl-source/source/debug/lib/libsdk.a(b53_trunk.o)
 .note.GNU-stack
                0x0000000000000000        0x0 /home/zhurish/workspace/working/zpl-source/source/debug/lib/libsdk.a(b53_vlan.o)
 .note.GNU-stack
                0x0000000000000000        0x0 /home/zhurish/workspace/working/zpl-source/source/debug/lib/libsdk.a(b53_qos.o)
 .note.GNU-stack
                0x0000000000000000        0x0 /home/zhurish/workspace/working/zpl-source/source/debug/lib/libsdk.a(b53_rate.o)
 .note.GNU-stack
                0x0000000000000000        0x0 /home/zhurish/workspace/working/zpl-source/source/debug/lib/libsdk.a(b53_eap.o)
 .note.GNU-stack
                0x0000000000000000        0x0 /home/zhurish/workspace/working/zpl-source/source/debug/lib/libsdk.a(b53_phy.o)
 .note.GNU-stack
                0x0000000000000000        0x0 /home/zhurish/workspace/working/zpl-source/source/debug/lib/libsdk.a(b53_cpu.o)
 .note.GNU-stack
                0x0000000000000000        0x0 /home/zhurish/workspace/working/zpl-source/source/debug/lib/libshell.a(vty_user.o)
 .note.GNU-stack
                0x0000000000000000        0x0 /home/zhurish/workspace/working/zpl-source/source/debug/lib/libshell.a(vty.o)
 .note.GNU-stack
                0x0000000000000000        0x0 /home/zhurish/workspace/working/zpl-source/source/debug/lib/libstartup.a(os_start.o)
 .note.GNU-stack
                0x0000000000000000        0x0 /home/zhurish/workspace/working/zpl-source/source/debug/lib/libstartup.a(os_module.o)
 .note.GNU-stack
                0x0000000000000000        0x0 /home/zhurish/workspace/working/zpl-source/source/debug/lib/libstartup.a(os_test.o)
 .note.GNU-stack
                0x0000000000000000        0x0 /home/zhurish/workspace/working/zpl-source/source/debug/lib/libuci.a(os_uci.o)
 .note.GNU-stack
                0x0000000000000000        0x0 /home/zhurish/workspace/working/zpl-source/source/debug/lib/libuci.a(delta.o)
 .note.GNU-stack
                0x0000000000000000        0x0 /home/zhurish/workspace/working/zpl-source/source/debug/lib/libuci.a(file.o)
 .note.GNU-stack
                0x0000000000000000        0x0 /home/zhurish/workspace/working/zpl-source/source/debug/lib/libuci.a(util.o)
 .note.GNU-stack
                0x0000000000000000        0x0 /home/zhurish/workspace/working/zpl-source/source/debug/lib/libuci.a(libuci.o)
 .note.GNU-stack
                0x0000000000000000        0x0 /home/zhurish/workspace/working/zpl-source/source/debug/lib/libbase.a(md5.o)
 .note.GNU-stack
                0x0000000000000000        0x0 /home/zhurish/workspace/working/zpl-source/source/debug/lib/libbase.a(sockunion.o)
 .note.GNU-stack
                0x0000000000000000        0x0 /home/zhurish/workspace/working/zpl-source/source/debug/lib/libbase.a(pid_output.o)
 .note.GNU-stack
                0x0000000000000000        0x0 /home/zhurish/workspace/working/zpl-source/source/debug/lib/libbase.a(buffer.o)
 .note.GNU-stack
                0x0000000000000000        0x0 /home/zhurish/workspace/working/zpl-source/source/debug/lib/libbase.a(template.o)
 .note.GNU-stack
                0x0000000000000000        0x0 /home/zhurish/workspace/working/zpl-source/source/debug/lib/libbase.a(stream.o)
 .note.GNU-stack
                0x0000000000000000        0x0 /home/zhurish/workspace/working/zpl-source/source/debug/lib/libbase.a(nexthop.o)
 .note.GNU-stack
                0x0000000000000000        0x0 /home/zhurish/workspace/working/zpl-source/source/debug/lib/libbase.a(table.o)
 .note.GNU-stack
                0x0000000000000000        0x0 /home/zhurish/workspace/working/zpl-source/source/debug/lib/libbase.a(connected.o)
 .note.GNU-stack
                0x0000000000000000        0x0 /home/zhurish/workspace/working/zpl-source/source/debug/lib/libbase.a(if.o)
 .note.GNU-stack
                0x0000000000000000        0x0 /home/zhurish/workspace/working/zpl-source/source/debug/lib/libbase.a(nsm_vrf.o)
 .note.GNU-stack
                0x0000000000000000        0x0 /home/zhurish/workspace/working/zpl-source/source/debug/lib/libbase.a(if_name.o)
 .note.GNU-stack
                0x0000000000000000        0x0 /home/zhurish/workspace/working/zpl-source/source/debug/lib/libbase.a(nsm_event.o)
 .note.GNU-stack
                0x0000000000000000        0x0 /home/zhurish/workspace/working/zpl-source/source/debug/lib/libbase.a(keychain.o)
 .note.GNU-stack
                0x0000000000000000        0x0 /home/zhurish/workspace/working/zpl-source/source/debug/lib/libbase.a(filter.o)
 .note.GNU-stack
                0x0000000000000000        0x0 /home/zhurish/workspace/working/zpl-source/source/debug/lib/libbase.a(plist.o)
 .note.GNU-stack
                0x0000000000000000        0x0 /home/zhurish/workspace/working/zpl-source/source/debug/lib/libbase.a(cmd_log.o)
 .note.GNU-stack
                0x0000000000000000        0x0 /home/zhurish/workspace/working/zpl-source/source/debug/lib/libbase.a(cmd_memory.o)
 .note.GNU-stack
                0x0000000000000000        0x0 /home/zhurish/workspace/working/zpl-source/source/debug/lib/libbase.a(jhash.o)
 .note.GNU-stack
                0x0000000000000000        0x0 /home/zhurish/workspace/working/zpl-source/source/debug/lib/libbase.a(network.o)
 .note.GNU-stack
                0x0000000000000000        0x0 /home/zhurish/workspace/working/zpl-source/source/debug/lib/libhal.a(hal_ipccmd.o)
 .note.GNU-stack
                0x0000000000000000        0x0 /home/zhurish/workspace/working/zpl-source/source/debug/lib/libhal.a(hal_ipcmsg.o)
 .note.GNU-stack
                0x0000000000000000        0x0 /home/zhurish/workspace/working/zpl-source/source/debug/lib/libhal.a(hal_port.o)
 .note.GNU-stack
                0x0000000000000000        0x0 /home/zhurish/workspace/working/zpl-source/source/debug/lib/libhal.a(hal_misc.o)
 .note.GNU-stack
                0x0000000000000000        0x0 /home/zhurish/workspace/working/zpl-source/source/debug/lib/libhal.a(hal_mstp.o)
 .note.GNU-stack
                0x0000000000000000        0x0 /home/zhurish/workspace/working/zpl-source/source/debug/lib/libhal.a(hal_dos.o)
 .note.GNU-stack
                0x0000000000000000        0x0 /home/zhurish/workspace/working/zpl-source/source/debug/lib/libhal.a(hal_mac.o)
 .note.GNU-stack
                0x0000000000000000        0x0 /home/zhurish/workspace/working/zpl-source/source/debug/lib/libhal.a(hal_vlan.o)
 .note.GNU-stack
                0x0000000000000000        0x0 /home/zhurish/workspace/working/zpl-source/source/debug/lib/libhal.a(hal_trunk.o)
 .note.GNU-stack
                0x0000000000000000        0x0 /home/zhurish/workspace/working/zpl-source/source/debug/lib/libhal.a(hal_mirror.o)
 .note.GNU-stack
                0x0000000000000000        0x0 /home/zhurish/workspace/working/zpl-source/source/debug/lib/libhal.a(hal_driver.o)
 .note.GNU-stack
                0x0000000000000000        0x0 /home/zhurish/workspace/working/zpl-source/source/debug/lib/libhal.a(hal_test.o)
 .note.GNU-stack
                0x0000000000000000        0x0 /home/zhurish/workspace/working/zpl-source/source/debug/lib/libhal.a(hal_global.o)
 .note.GNU-stack
                0x0000000000000000        0x0 /home/zhurish/workspace/working/zpl-source/source/debug/lib/libhal.a(hal_ipcsrv.o)
 .note.GNU-stack
                0x0000000000000000        0x0 /home/zhurish/workspace/working/zpl-source/source/debug/lib/libipcbc.a(if_manage.o)
 .note.GNU-stack
                0x0000000000000000        0x0 /home/zhurish/workspace/working/zpl-source/source/debug/lib/libipcbc.a(bmgt.o)
 .note.GNU-stack
                0x0000000000000000        0x0 /home/zhurish/workspace/working/zpl-source/source/debug/lib/libipcbc.a(if_ktest.o)
 .note.GNU-stack
                0x0000000000000000        0x0 /home/zhurish/workspace/working/zpl-source/source/debug/lib/libnsm.a(nsm_debug.o)
 .note.GNU-stack
                0x0000000000000000        0x0 /home/zhurish/workspace/working/zpl-source/source/debug/lib/libos.a(os_nvram.o)
 .note.GNU-stack
                0x0000000000000000        0x0 /home/zhurish/workspace/working/zpl-source/source/debug/lib/libos.a(tty_com.o)
 .note.GNU-stack
                0x0000000000000000        0x0 /home/zhurish/workspace/working/zpl-source/source/debug/lib/libos.a(cmd_os.o)
 .note.GNU-stack
                0x0000000000000000        0x0 /home/zhurish/workspace/working/zpl-source/source/debug/lib/libos.a(cmd_nvram_env.o)
 .note.GNU-stack
                0x0000000000000000        0x0 /home/zhurish/workspace/working/zpl-source/source/debug/lib/libos.a(os_message.o)
 .note.GNU-stack
                0x0000000000000000        0x0 /home/zhurish/workspace/working/zpl-source/source/debug/lib/libshell.a(cmd_vty.o)
 .note.GNU-stack
                0x0000000000000000        0x0 /home/zhurish/workspace/working/zpl-source/source/debug/lib/libshell.a(cmd_user_vty.o)
 .note.GNU-stack
                0x0000000000000000        0x0 /opt/gcc-linaro-7.5.0-arm-linux-gnueabihf/bin/../arm-linux-gnueabihf/libc/usr/lib/libc_nonshared.a(elf-init.oS)
 .note.GNU-stack
                0x0000000000000000        0x0 /opt/gcc-linaro-7.5.0-arm-linux-gnueabihf/bin/../arm-linux-gnueabihf/libc/usr/lib/libc_nonshared.a(stat.oS)
 .note.GNU-stack
                0x0000000000000000        0x0 /opt/gcc-linaro-7.5.0-arm-linux-gnueabihf/bin/../lib/gcc/arm-linux-gnueabihf/7.5.0/crtend.o
 .note.GNU-stack
                0x0000000000000000        0x0 /opt/gcc-linaro-7.5.0-arm-linux-gnueabihf/bin/../arm-linux-gnueabihf/libc/usr/lib/crtn.o

Memory Configuration

Name             Origin             Length             Attributes
*default*        0x0000000000000000 0xffffffffffffffff

Linker script and memory map

LOAD /opt/gcc-linaro-7.5.0-arm-linux-gnueabihf/bin/../arm-linux-gnueabihf/libc/usr/lib/crt1.o
LOAD /opt/gcc-linaro-7.5.0-arm-linux-gnueabihf/bin/../arm-linux-gnueabihf/libc/usr/lib/crti.o
LOAD /opt/gcc-linaro-7.5.0-arm-linux-gnueabihf/bin/../lib/gcc/arm-linux-gnueabihf/7.5.0/crtbegin.o
LOAD os_main.o
START GROUP
LOAD /home/zhurish/workspace/working/zpl-source/source/debug/lib/libbase.a
LOAD /home/zhurish/workspace/working/zpl-source/source/debug/lib/libhal.a
LOAD /home/zhurish/workspace/working/zpl-source/source/debug/lib/libipcbc.a
LOAD /home/zhurish/workspace/working/zpl-source/source/debug/lib/libjsoncpp.a
LOAD /home/zhurish/workspace/working/zpl-source/source/debug/lib/libnsm.a
LOAD /home/zhurish/workspace/working/zpl-source/source/debug/lib/libos.a
LOAD /home/zhurish/workspace/working/zpl-source/source/debug/lib/libpal.a
LOAD /home/zhurish/workspace/working/zpl-source/source/debug/lib/libproduct.a
LOAD /home/zhurish/workspace/working/zpl-source/source/debug/lib/librtpl.a
LOAD /home/zhurish/workspace/working/zpl-source/source/debug/lib/libsdk.a
LOAD /home/zhurish/workspace/working/zpl-source/source/debug/lib/libshell.a
LOAD /home/zhurish/workspace/working/zpl-source/source/debug/lib/libstartup.a
LOAD /home/zhurish/workspace/working/zpl-source/source/debug/lib/libuci.a
END GROUP
LOAD /opt/gcc-linaro-7.5.0-arm-linux-gnueabihf/bin/../arm-linux-gnueabihf/libc/usr/lib/libpthread.so
START GROUP
LOAD /opt/gcc-linaro-7.5.0-arm-linux-gnueabihf/bin/../arm-linux-gnueabihf/libc/lib/libpthread.so.0
LOAD /opt/gcc-linaro-7.5.0-arm-linux-gnueabihf/bin/../arm-linux-gnueabihf/libc/usr/lib/libpthread_nonshared.a
END GROUP
LOAD /opt/gcc-linaro-7.5.0-arm-linux-gnueabihf/bin/../arm-linux-gnueabihf/libc/usr/lib/librt.so
LOAD /opt/gcc-linaro-7.5.0-arm-linux-gnueabihf/bin/../arm-linux-gnueabihf/libc/usr/lib/libm.so
LOAD /opt/gcc-linaro-7.5.0-arm-linux-gnueabihf/bin/../arm-linux-gnueabihf/libc/usr/lib/libcrypt.so
LOAD /opt/gcc-linaro-7.5.0-arm-linux-gnueabihf/bin/../arm-linux-gnueabihf/libc/usr/lib/libdl.so
LOAD /opt/gcc-linaro-7.5.0-arm-linux-gnueabihf/bin/../lib/gcc/arm-linux-gnueabihf/7.5.0/../../../../arm-linux-gnueabihf/lib/libgcc_s.so
START GROUP
LOAD /opt/gcc-linaro-7.5.0-arm-linux-gnueabihf/bin/../lib/gcc/arm-linux-gnueabihf/7.5.0/../../../../arm-linux-gnueabihf/lib/libgcc_s.so.1
LOAD /opt/gcc-linaro-7.5.0-arm-linux-gnueabihf/bin/../lib/gcc/arm-linux-gnueabihf/7.5.0/libgcc.a
END GROUP
LOAD /opt/gcc-linaro-7.5.0-arm-linux-gnueabihf/bin/../lib/gcc/arm-linux-gnueabihf/7.5.0/../../../../arm-linux-gnueabihf/lib/libstdc++.so
LOAD /opt/gcc-linaro-7.5.0-arm-linux-gnueabihf/bin/../lib/gcc/arm-linux-gnueabihf/7.5.0/libgcc.a
LOAD /opt/gcc-linaro-7.5.0-arm-linux-gnueabihf/bin/../lib/gcc/arm-linux-gnueabihf/7.5.0/../../../../arm-linux-gnueabihf/lib/libgcc_s.so
START GROUP
LOAD /opt/gcc-linaro-7.5.0-arm-linux-gnueabihf/bin/../lib/gcc/arm-linux-gnueabihf/7.5.0/../../../../arm-linux-gnueabihf/lib/libgcc_s.so.1
LOAD /opt/gcc-linaro-7.5.0-arm-linux-gnueabihf/bin/../lib/gcc/arm-linux-gnueabihf/7.5.0/libgcc.a
END GROUP
LOAD /opt/gcc-linaro-7.5.0-arm-linux-gnueabihf/bin/../arm-linux-gnueabihf/libc/usr/lib/libc.so
START GROUP
LOAD /opt/gcc-linaro-7.5.0-arm-linux-gnueabihf/bin/../arm-linux-gnueabihf/libc/lib/libc.so.6
LOAD /opt/gcc-linaro-7.5.0-arm-linux-gnueabihf/bin/../arm-linux-gnueabihf/libc/usr/lib/libc_nonshared.a
LOAD /opt/gcc-linaro-7.5.0-arm-linux-gnueabihf/bin/../arm-linux-gnueabihf/libc/lib/ld-linux-armhf.so.3
END GROUP
LOAD /opt/gcc-linaro-7.5.0-arm-linux-gnueabihf/bin/../lib/gcc/arm-linux-gnueabihf/7.5.0/libgcc.a
LOAD /opt/gcc-linaro-7.5.0-arm-linux-gnueabihf/bin/../lib/gcc/arm-linux-gnueabihf/7.5.0/../../../../arm-linux-gnueabihf/lib/libgcc_s.so
START GROUP
LOAD /opt/gcc-linaro-7.5.0-arm-linux-gnueabihf/bin/../lib/gcc/arm-linux-gnueabihf/7.5.0/../../../../arm-linux-gnueabihf/lib/libgcc_s.so.1
LOAD /opt/gcc-linaro-7.5.0-arm-linux-gnueabihf/bin/../lib/gcc/arm-linux-gnueabihf/7.5.0/libgcc.a
END GROUP
LOAD /opt/gcc-linaro-7.5.0-arm-linux-gnueabihf/bin/../lib/gcc/arm-linux-gnueabihf/7.5.0/crtend.o
LOAD /opt/gcc-linaro-7.5.0-arm-linux-gnueabihf/bin/../arm-linux-gnueabihf/libc/usr/lib/crtn.o
                [!provide]                        PROVIDE (__executable_start, SEGMENT_START ("text-segment", 0x10000))
                0x0000000000010154                . = (SEGMENT_START ("text-segment", 0x10000) + SIZEOF_HEADERS)

.interp         0x0000000000010154       0x19
 *(.interp)
 .interp        0x0000000000010154       0x19 /opt/gcc-linaro-7.5.0-arm-linux-gnueabihf/bin/../arm-linux-gnueabihf/libc/usr/lib/crt1.o

.note.ABI-tag   0x0000000000010170       0x20
 .note.ABI-tag  0x0000000000010170       0x20 /opt/gcc-linaro-7.5.0-arm-linux-gnueabihf/bin/../arm-linux-gnueabihf/libc/usr/lib/crt1.o

.note.gnu.build-id
                0x0000000000010190       0x24
 *(.note.gnu.build-id)
 .note.gnu.build-id
                0x0000000000010190       0x24 linker stubs

.hash           0x00000000000101b4     0x5680
 *(.hash)
 .hash          0x00000000000101b4     0x5680 /opt/gcc-linaro-7.5.0-arm-linux-gnueabihf/bin/../arm-linux-gnueabihf/libc/usr/lib/crt1.o

.gnu.hash
 *(.gnu.hash)

.dynsym         0x0000000000015834     0xd990
 *(.dynsym)
 .dynsym        0x0000000000015834     0xd990 /opt/gcc-linaro-7.5.0-arm-linux-gnueabihf/bin/../arm-linux-gnueabihf/libc/usr/lib/crt1.o

.dynstr         0x00000000000231c4     0xf4ac
 *(.dynstr)
 .dynstr        0x00000000000231c4     0xf4ac /opt/gcc-linaro-7.5.0-arm-linux-gnueabihf/bin/../arm-linux-gnueabihf/libc/usr/lib/crt1.o

.gnu.version    0x0000000000032670     0x1b32
 *(.gnu.version)
 .gnu.version   0x0000000000032670     0x1b32 /opt/gcc-linaro-7.5.0-arm-linux-gnueabihf/bin/../arm-linux-gnueabihf/libc/usr/lib/crt1.o

.gnu.version_d  0x00000000000341a4        0x0
 *(.gnu.version_d)
 .gnu.version_d
                0x00000000000341a4        0x0 /opt/gcc-linaro-7.5.0-arm-linux-gnueabihf/bin/../arm-linux-gnueabihf/libc/usr/lib/crt1.o

.gnu.version_r  0x00000000000341a4       0xe0
 *(.gnu.version_r)
 .gnu.version_r
                0x00000000000341a4       0xe0 /opt/gcc-linaro-7.5.0-arm-linux-gnueabihf/bin/../arm-linux-gnueabihf/libc/usr/lib/crt1.o

.rel.dyn        0x0000000000034284       0x40
 *(.rel.init)
 *(.rel.text .rel.text.* .rel.gnu.linkonce.t.*)
 *(.rel.fini)
 *(.rel.rodata .rel.rodata.* .rel.gnu.linkonce.r.*)
 *(.rel.data.rel.ro .rel.data.rel.ro.* .rel.gnu.linkonce.d.rel.ro.*)
 .rel.data.rel.ro
                0x0000000000034284        0x0 /opt/gcc-linaro-7.5.0-arm-linux-gnueabihf/bin/../arm-linux-gnueabihf/libc/usr/lib/crt1.o
 *(.rel.data .rel.data.* .rel.gnu.linkonce.d.*)
 *(.rel.tdata .rel.tdata.* .rel.gnu.linkonce.td.*)
 *(.rel.tbss .rel.tbss.* .rel.gnu.linkonce.tb.*)
 *(.rel.ctors)
 *(.rel.dtors)
 *(.rel.got)
 .rel.got       0x0000000000034284       0x40 /opt/gcc-linaro-7.5.0-arm-linux-gnueabihf/bin/../arm-linux-gnueabihf/libc/usr/lib/crt1.o
 *(.rel.bss .rel.bss.* .rel.gnu.linkonce.b.*)
 .rel.bss       0x00000000000342c4        0x0 /opt/gcc-linaro-7.5.0-arm-linux-gnueabihf/bin/../arm-linux-gnueabihf/libc/usr/lib/crt1.o
                [!provide]                        PROVIDE (__rel_iplt_start, .)
 *(.rel.iplt)
 .rel.iplt      0x00000000000342c4        0x0 /opt/gcc-linaro-7.5.0-arm-linux-gnueabihf/bin/../arm-linux-gnueabihf/libc/usr/lib/crt1.o
                [!provide]                        PROVIDE (__rel_iplt_end, .)

.rela.dyn       0x00000000000342c4        0x0
 *(.rela.init)
 *(.rela.text .rela.text.* .rela.gnu.linkonce.t.*)
 *(.rela.fini)
 *(.rela.rodata .rela.rodata.* .rela.gnu.linkonce.r.*)
 *(.rela.data .rela.data.* .rela.gnu.linkonce.d.*)
 *(.rela.tdata .rela.tdata.* .rela.gnu.linkonce.td.*)
 *(.rela.tbss .rela.tbss.* .rela.gnu.linkonce.tb.*)
 *(.rela.ctors)
 *(.rela.dtors)
 *(.rela.got)
 *(.rela.bss .rela.bss.* .rela.gnu.linkonce.b.*)
                [!provide]                        PROVIDE (__rela_iplt_start, .)
 *(.rela.iplt)
                [!provide]                        PROVIDE (__rela_iplt_end, .)

.rel.plt        0x00000000000342c4      0x770
 *(.rel.plt)
 .rel.plt       0x00000000000342c4      0x770 /opt/gcc-linaro-7.5.0-arm-linux-gnueabihf/bin/../arm-linux-gnueabihf/libc/usr/lib/crt1.o

.rela.plt
 *(.rela.plt)

.init           0x0000000000034a34        0xc
 *(SORT(.init))
 .init          0x0000000000034a34        0x8 /opt/gcc-linaro-7.5.0-arm-linux-gnueabihf/bin/../arm-linux-gnueabihf/libc/usr/lib/crti.o
                0x0000000000034a34                _init
 .init          0x0000000000034a3c        0x4 /opt/gcc-linaro-7.5.0-arm-linux-gnueabihf/bin/../arm-linux-gnueabihf/libc/usr/lib/crtn.o

.plt            0x0000000000034a40      0xb40
 *(.plt)
 .plt           0x0000000000034a40      0xb40 /opt/gcc-linaro-7.5.0-arm-linux-gnueabihf/bin/../arm-linux-gnueabihf/libc/usr/lib/crt1.o
                0x0000000000034a54                pthread_cond_init@@GLIBC_2.4
                0x0000000000034a60                chdir@@GLIBC_2.4
                0x0000000000034a6c                sem_destroy@@GLIBC_2.4
                0x0000000000034a78                _IO_getc@@GLIBC_2.4
                0x0000000000034a84                pthread_mutex_lock@@GLIBC_2.4
                0x0000000000034a90                localtime_r@@GLIBC_2.4
                0x0000000000034a9c                ntohl@@GLIBC_2.4
                0x0000000000034aa8                pthread_mutex_init@@GLIBC_2.4
                0x0000000000034ab4                fscanf@@GLIBC_2.4
                0x0000000000034ac0                fsync@@GLIBC_2.4
                0x0000000000034acc                rand@@GLIBC_2.4
                0x0000000000034ad8                cfmakeraw@@GLIBC_2.4
                0x0000000000034ae4                pthread_detach@@GLIBC_2.4
                0x0000000000034af0                sync@@GLIBC_2.4
                0x0000000000034afc                ftruncate@@GLIBC_2.4
                0x0000000000034b14                popen@@GLIBC_2.4
                0x0000000000034b20                getpid@@GLIBC_2.4
                0x0000000000034b2c                gettimeofday@@GLIBC_2.4
                0x0000000000034b38                recvfrom@@GLIBC_2.4
                0x0000000000034b44                pthread_cond_destroy@@GLIBC_2.4
                0x0000000000034b50                cfsetospeed@@GLIBC_2.4
                0x0000000000034b5c                socketpair@@GLIBC_2.4
                0x0000000000034b68                getsockopt@@GLIBC_2.4
                0x0000000000034b74                strcasecmp@@GLIBC_2.4
                0x0000000000034b80                pthread_spin_unlock@@GLIBC_2.4
                0x0000000000034b8c                fdopen@@GLIBC_2.4
                0x0000000000034b98                mkstemp@@GLIBC_2.4
                0x0000000000034ba4                inet_addr@@GLIBC_2.4
                0x0000000000034bb0                strtol@@GLIBC_2.4
                0x0000000000034bbc                free@@GLIBC_2.4
                0x0000000000034bc8                pthread_spin_destroy@@GLIBC_2.4
                0x0000000000034bd4                inet_pton@@GLIBC_2.4
                0x0000000000034be0                readdir@@GLIBC_2.4
                0x0000000000034bec                fseek@@GLIBC_2.4
                0x0000000000034bf8                asprintf@@GLIBC_2.4
                0x0000000000034c04                pthread_mutexattr_init@@GLIBC_2.4
                0x0000000000034c10                pthread_mutex_timedlock@@GLIBC_2.4
                0x0000000000034c1c                pthread_setname_np@@GLIBC_2.12
                0x0000000000034c28                qsort@@GLIBC_2.4
                0x0000000000034c34                strncmp@@GLIBC_2.4
                0x0000000000034c40                pthread_exit@@GLIBC_2.4
                0x0000000000034c4c                pthread_attr_getschedparam@@GLIBC_2.4
                0x0000000000034c58                pthread_join@@GLIBC_2.4
                0x0000000000034c64                strcspn@@GLIBC_2.4
                0x0000000000034c70                vsyslog@@GLIBC_2.4
                0x0000000000034c7c                closedir@@GLIBC_2.4
                0x0000000000034c88                inet_ntop@@GLIBC_2.4
                0x0000000000034c94                inet_aton@@GLIBC_2.4
                0x0000000000034ca0                bcopy@@GLIBC_2.4
                0x0000000000034cac                exit@@GLIBC_2.4
                0x0000000000034cb8                printf@@GLIBC_2.4
                0x0000000000034cc4                strerror@@GLIBC_2.4
                0x0000000000034cd0                pthread_setschedparam@@GLIBC_2.4
                0x0000000000034cdc                pthread_attr_setschedpolicy@@GLIBC_2.4
                0x0000000000034ce8                uname@@GLIBC_2.4
                0x0000000000034cf4                getpeername@@GLIBC_2.4
                0x0000000000034d00                backtrace_symbols@@GLIBC_2.4
                0x0000000000034d0c                feof@@GLIBC_2.4
                0x0000000000034d18                puts@@GLIBC_2.4
                0x0000000000034d24                realpath@@GLIBC_2.4
                0x0000000000034d30                strtok@@GLIBC_2.4
                0x0000000000034d3c                strtoll@@GLIBC_2.4
                0x0000000000034d48                atol@@GLIBC_2.4
                0x0000000000034d54                flock@@GLIBC_2.4
                0x0000000000034d60                atoi@@GLIBC_2.4
                0x0000000000034d6c                syscall@@GLIBC_2.4
                0x0000000000034d78                sigfillset@@GLIBC_2.4
                0x0000000000034d84                sendto@@GLIBC_2.4
                0x0000000000034d90                readlink@@GLIBC_2.4
                0x0000000000034d9c                prctl@@GLIBC_2.4
                0x0000000000034da8                strtoul@@GLIBC_2.4
                0x0000000000034db4                nanosleep@@GLIBC_2.4
                0x0000000000034dc0                strftime@@GLIBC_2.4
                0x0000000000034dcc                putchar@@GLIBC_2.4
                0x0000000000034dd8                memset@@GLIBC_2.4
                0x0000000000034de4                pthread_self@@GLIBC_2.4
                0x0000000000034df0                closelog@@GLIBC_2.4
                0x0000000000034dfc                strspn@@GLIBC_2.4
                0x0000000000034e08                opendir@@GLIBC_2.4
                0x0000000000034e14                srandom@@GLIBC_2.4
                0x0000000000034e20                crypt@@GLIBC_2.4
                0x0000000000034e2c                recv@@GLIBC_2.4
                0x0000000000034e38                remove@@GLIBC_2.4
                0x0000000000034e44                fcntl@@GLIBC_2.4
                0x0000000000034e50                pthread_sigmask@@GLIBC_2.4
                0x0000000000034e5c                cfsetispeed@@GLIBC_2.4
                0x0000000000034e68                listen@@GLIBC_2.4
                0x0000000000034e74                __cmsg_nxthdr@@GLIBC_2.4
                0x0000000000034e80                snprintf@@GLIBC_2.4
                0x0000000000034e8c                sigaddset@@GLIBC_2.4
                0x0000000000034e98                pthread_mutex_trylock@@GLIBC_2.4
                0x0000000000034ea4                close@@GLIBC_2.4
                0x0000000000034eb0                gmtime@@GLIBC_2.4
                0x0000000000034ebc                fopen@@GLIBC_2.4
                0x0000000000034ec8                read@@GLIBC_2.4
                0x0000000000034ed4                abort@@GLIBC_2.4
                0x0000000000034ee0                vfprintf@@GLIBC_2.4
                0x0000000000034eec                recvmsg@@GLIBC_2.4
                0x0000000000034ef8                memmove@@GLIBC_2.4
                0x0000000000034f04                strpbrk@@GLIBC_2.4
                0x0000000000034f10                pthread_spin_init@@GLIBC_2.4
                0x0000000000034f1c                mkfifo@@GLIBC_2.4
                0x0000000000034f28                unlink@@GLIBC_2.4
                0x0000000000034f34                gethostbyname@@GLIBC_2.4
                0x0000000000034f40                kill@@GLIBC_2.4
                0x0000000000034f4c                ioctl@@GLIBC_2.4
                0x0000000000034f58                tcflush@@GLIBC_2.4
                0x0000000000034f64                pthread_yield@@GLIBC_2.4
                0x0000000000034f70                dup2@@GLIBC_2.4
                0x0000000000034f7c                gmtime_r@@GLIBC_2.4
                0x0000000000034f88                htonl@@GLIBC_2.4
                0x0000000000034f94                system@@GLIBC_2.4
                0x0000000000034fa0                inet_ntoa@@GLIBC_2.4
                0x0000000000034fac                realloc@@GLIBC_2.4
                0x0000000000034fb8                strcpy@@GLIBC_2.4
                0x0000000000034fc4                setns@@GLIBC_2.14
                0x0000000000034fd0                __assert_fail@@GLIBC_2.4
                0x0000000000034fdc                sem_trywait@@GLIBC_2.4
                0x0000000000034fe8                tzset@@GLIBC_2.4
                0x0000000000034ff4                bzero@@GLIBC_2.4
                0x0000000000035000                timer_create@@GLIBC_2.4
                0x000000000003500c                __aeabi_l2f@@GCC_3.5
                0x0000000000035018                open@@GLIBC_2.4
                0x0000000000035024                bind@@GLIBC_2.4
                0x0000000000035030                strsep@@GLIBC_2.4
                0x000000000003503c                waitpid@@GLIBC_2.4
                0x0000000000035048                chmod@@GLIBC_2.4
                0x0000000000035054                strcat@@GLIBC_2.4
                0x0000000000035060                rewind@@GLIBC_2.4
                0x000000000003506c                pthread_mutex_destroy@@GLIBC_2.4
                0x0000000000035078                tcsetattr@@GLIBC_2.4
                0x0000000000035084                backtrace@@GLIBC_2.4
                0x0000000000035090                fread@@GLIBC_2.4
                0x000000000003509c                fileno@@GLIBC_2.4
                0x00000000000350a8                sysinfo@@GLIBC_2.4
                0x00000000000350b4                __stack_chk_fail@@GLIBC_2.4
                0x00000000000350c0                timer_settime@@GLIBC_2.4
                0x00000000000350cc                fork@@GLIBC_2.4
                0x00000000000350d8                socket@@GLIBC_2.4
                0x00000000000350e4                backtrace_symbols_fd@@GLIBC_2.4
                0x00000000000350f0                pthread_spin_lock@@GLIBC_2.4
                0x00000000000350fc                access@@GLIBC_2.4
                0x0000000000035108                setenv@@GLIBC_2.4
                0x0000000000035114                isatty@@GLIBC_2.4
                0x0000000000035120                sigdelset@@GLIBC_2.4
                0x000000000003512c                mkdir@@GLIBC_2.4
                0x0000000000035138                ntohs@@GLIBC_2.4
                0x0000000000035144                strstr@@GLIBC_2.4
                0x0000000000035150                sem_init@@GLIBC_2.4
                0x000000000003515c                sem_timedwait@@GLIBC_2.4
                0x0000000000035168                setrlimit@@GLIBC_2.4
                0x0000000000035174                pthread_kill@@GLIBC_2.4
                0x0000000000035180                strncasecmp@@GLIBC_2.4
                0x000000000003518c                clock_settime@@GLIBC_2.4
                0x0000000000035198                pclose@@GLIBC_2.4
                0x00000000000351a4                pthread_attr_destroy@@GLIBC_2.4
                0x00000000000351b0                getopt_long@@GLIBC_2.4
                0x00000000000351bc                setsockopt@@GLIBC_2.4
                0x00000000000351c8                select@@GLIBC_2.4
                0x00000000000351d4                pthread_cancel@@GLIBC_2.4
                0x00000000000351e0                shutdown@@GLIBC_2.4
                0x00000000000351ec                sleep@@GLIBC_2.4
                0x00000000000351f8                lseek@@GLIBC_2.4
                0x0000000000035204                __ctype_b_loc@@GLIBC_2.4
                0x0000000000035210                pthread_attr_setstacksize@@GLIBC_2.4
                0x000000000003521c                if_nametoindex@@GLIBC_2.4
                0x0000000000035228                connect@@GLIBC_2.4
                0x0000000000035234                sigaction@@GLIBC_2.4
                0x0000000000035240                pthread_attr_init@@GLIBC_2.4
                0x000000000003524c                sysconf@@GLIBC_2.4
                0x0000000000035258                calloc@@GLIBC_2.4
                0x0000000000035264                strncat@@GLIBC_2.4
                0x0000000000035270                ftell@@GLIBC_2.4
                0x000000000003527c                daemon@@GLIBC_2.4
                0x0000000000035288                fgets@@GLIBC_2.4
                0x0000000000035294                sem_post@@GLIBC_2.4
                0x00000000000352a0                fputc@@GLIBC_2.4
                0x00000000000352ac                fwrite@@GLIBC_2.4
                0x00000000000352b8                longjmp@@GLIBC_2.4
                0x00000000000352c4                memcpy@@GLIBC_2.4
                0x00000000000352d0                umask@@GLIBC_2.4
                0x00000000000352dc                htons@@GLIBC_2.4
                0x00000000000352e8                malloc@@GLIBC_2.4
                0x00000000000352f4                strlen@@GLIBC_2.4
                0x0000000000035300                timer_delete@@GLIBC_2.4
                0x000000000003530c                getcwd@@GLIBC_2.4
                0x0000000000035318                pthread_testcancel@@GLIBC_2.4
                0x0000000000035324                accept@@GLIBC_2.4
                0x0000000000035330                globfree@@GLIBC_2.4
                0x000000000003533c                usleep@@GLIBC_2.4
                0x0000000000035348                fprintf@@GLIBC_2.4
                0x0000000000035354                fclose@@GLIBC_2.4
                0x0000000000035360                write@@GLIBC_2.4
                0x000000000003536c                getrlimit@@GLIBC_2.4
                0x0000000000035378                atof@@GLIBC_2.4
                0x0000000000035384                sprintf@@GLIBC_2.4
                0x0000000000035394                __xstat@@GLIBC_2.4
                0x00000000000353a0                random@@GLIBC_2.4
                0x00000000000353ac                _exit@@GLIBC_2.4
                0x00000000000353b8                pthread_create@@GLIBC_2.4
                0x00000000000353c4                strcmp@@GLIBC_2.4
                0x00000000000353d0                pthread_mutexattr_settype@@GLIBC_2.4
                0x00000000000353dc                time@@GLIBC_2.4
                0x00000000000353e8                tcgetattr@@GLIBC_2.4
                0x00000000000353f4                __errno_location@@GLIBC_2.4
                0x0000000000035400                send@@GLIBC_2.4
                0x000000000003540c                sscanf@@GLIBC_2.4
                0x0000000000035418                strncpy@@GLIBC_2.4
                0x0000000000035424                getchar@@GLIBC_2.4
                0x0000000000035430                fflush@@GLIBC_2.4
                0x000000000003543c                pthread_attr_setschedparam@@GLIBC_2.4
                0x0000000000035448                _setjmp@@GLIBC_2.4
                0x0000000000035454                memcmp@@GLIBC_2.4
                0x0000000000035460                __xpg_basename@@GLIBC_2.4
                0x000000000003546c                writev@@GLIBC_2.4
                0x0000000000035478                sendmsg@@GLIBC_2.4
                0x0000000000035484                sigemptyset@@GLIBC_2.4
                0x0000000000035490                strrchr@@GLIBC_2.4
                0x000000000003549c                getsockname@@GLIBC_2.4
                0x00000000000354a8                pthread_attr_setinheritsched@@GLIBC_2.4
                0x00000000000354b4                mktime@@GLIBC_2.4
                0x00000000000354c0                openlog@@GLIBC_2.4
                0x00000000000354cc                fputs@@GLIBC_2.4
                0x00000000000354d8                __libc_start_main@@GLIBC_2.4
                0x00000000000354e4                clock_gettime@@GLIBC_2.4
                0x00000000000354f0                vsprintf@@GLIBC_2.4
                0x00000000000354fc                execvp@@GLIBC_2.4
                0x0000000000035514                rename@@GLIBC_2.4
                0x0000000000035520                sem_wait@@GLIBC_2.4
                0x000000000003552c                strchr@@GLIBC_2.4
                0x0000000000035538                tcdrain@@GLIBC_2.4
                0x0000000000035544                pthread_mutex_unlock@@GLIBC_2.4
                0x0000000000035550                glob@@GLIBC_2.4
                0x000000000003555c                vsnprintf@@GLIBC_2.4
                0x0000000000035568                strdup@@GLIBC_2.4
                0x0000000000035574                sched_yield@@GLIBC_2.4

.iplt           0x0000000000035580        0x0
 *(.iplt)
 .iplt          0x0000000000035580        0x0 /opt/gcc-linaro-7.5.0-arm-linux-gnueabihf/bin/../arm-linux-gnueabihf/libc/usr/lib/crt1.o

.text           0x0000000000035580    0xb0b90
 *(.text.unlikely .text.*_unlikely .text.unlikely.*)
 *(.text.exit .text.exit.*)
 *(.text.startup .text.startup.*)
 *(.text.hot .text.hot.*)
 *(.text .stub .text.* .gnu.linkonce.t.*)
 .text          0x0000000000035580       0x30 /opt/gcc-linaro-7.5.0-arm-linux-gnueabihf/bin/../arm-linux-gnueabihf/libc/usr/lib/crt1.o
                0x0000000000035580                _start
 .text          0x00000000000355b0       0x24 /opt/gcc-linaro-7.5.0-arm-linux-gnueabihf/bin/../arm-linux-gnueabihf/libc/usr/lib/crti.o
 .text          0x00000000000355d4       0x6c /opt/gcc-linaro-7.5.0-arm-linux-gnueabihf/bin/../lib/gcc/arm-linux-gnueabihf/7.5.0/crtbegin.o
 .text          0x0000000000035640      0x57c os_main.o
                0x0000000000035a38                main
 .text          0x0000000000035bbc     0x4bc8 /home/zhurish/workspace/working/zpl-source/source/debug/lib/libbase.a(log.o)
                0x0000000000035bbc                zlog_facility_name
                0x0000000000035c04                zlog_facility_match
                0x0000000000035c50                zlog_priority_match
                0x0000000000035ca8                zlog_priority_name
                0x0000000000035cdc                zlog_proto_names
                0x0000000000035d04                quagga_timestamp
                0x0000000000035ec8                time_print
                0x0000000000035f3c                zlog_depth_debug_detail
                0x000000000003666e                pl_vzlog
                0x0000000000037270                zlog_signal
                0x00000000000376d8                zlog_backtrace_sigsafe
                0x0000000000037b70                zlog_backtrace
                0x0000000000037cd4                pl_zlog
                0x0000000000037d20                pl_zlog_err
                0x0000000000037d6c                pl_zlog_warn
                0x0000000000037db8                pl_zlog_info
                0x0000000000037e04                pl_zlog_notice
                0x0000000000037e50                pl_zlog_debug
                0x0000000000037e9c                pl_zlog_trap
                0x0000000000037f28                _zlog_assert_failed
                0x0000000000038004                openzlog
                0x0000000000038124                openzlog_start
                0x00000000000381a8                closezlog
                0x0000000000038240                zlog_set_trap
                0x00000000000382e8                zlog_get_trap
                0x000000000003835c                zlog_set_facility
                0x00000000000383c8                zlog_get_facility
                0x000000000003843c                zlog_set_record_priority
                0x00000000000384a8                zlog_get_record_priority
                0x000000000003851c                zlog_set_timestamp
                0x0000000000038594                zlog_get_timestamp
                0x0000000000038608                zlog_set_level
                0x000000000003867c                zlog_get_level
                0x00000000000386f8                zlog_reset_file
                0x0000000000038880                zlog_set_file
                0x0000000000038a5c                zlog_get_file
                0x0000000000038af8                zlog_close_file
                0x0000000000038ba4                zlog_set_file_size
                0x0000000000038c24                zlog_get_file_size
                0x0000000000038c9c                zlog_testing_enable
                0x0000000000038d54                zlog_testing_enabled
                0x0000000000038d88                zlog_testing_priority
                0x0000000000038df8                zlog_testing_file
                0x00000000000391dc                zlog_file_save
                0x00000000000397ac                zlog_buffer_reset
                0x0000000000039874                zlog_set_buffer_size
                0x00000000000398fc                zlog_get_buffer_size
                0x0000000000039974                zlog_buffer_save
                0x0000000000039ba8                zlog_buffer_callback_api
                0x0000000000039c70                zlog_rotate
                0x0000000000039e38                lookup
                0x0000000000039e7c                mes_lookup
                0x000000000003a0a0                zebra_route_string
                0x000000000003a0ba                zebra_route_char
                0x000000000003a0d6                zserv_command_string
                0x000000000003a138                proto_name2num
                0x000000000003a1a0                proto_redistnum
                0x000000000003a514                zlog_hexdump
 .text          0x000000000003a784      0x294 /home/zhurish/workspace/working/zpl-source/source/debug/lib/libbase.a(module.o)
                0x000000000003a784                module2name
                0x000000000003a7f0                name2module
                0x000000000003a874                module2task
                0x000000000003a8dc                task2module
                0x000000000003a944                task_module_self
                0x000000000003a9ac                module_setup_task
 .text          0x000000000003aa18      0x688 /home/zhurish/workspace/working/zpl-source/source/debug/lib/libbase.a(memory.o)
                0x000000000003aa84                zmalloc
                0x000000000003aacc                zzcalloc
                0x000000000003ab14                z_zcalloc
                0x000000000003ab60                zrealloc
                0x000000000003abb8                zfree
                0x000000000003abdc                cjson_malloc
                0x000000000003abf6                cjson_free
                0x000000000003ac0e                zstrdup
                0x000000000003ad9c                log_memstats_stderr
                0x000000000003af58                vty_show_memory_cmd
                0x000000000003afb0                memory_init
                0x000000000003afbe                mtype_memstr
                0x000000000003b078                mtype_stats_alloc
 .text          0x000000000003b0a0        0x0 /home/zhurish/workspace/working/zpl-source/source/debug/lib/libbase.a(memtypes.o)
 .text          0x000000000003b0a0     0x3bdc /home/zhurish/workspace/working/zpl-source/source/debug/lib/libbase.a(command.o)
                0x000000000003b0a0                print_version
                0x000000000003b0d8                argv_concat
                0x000000000003b1c6                install_node
                0x000000000003b228                reinstall_node
                0x000000000003b25c                cmd_make_strvec
                0x000000000003b3ac                cmd_free_strvec
                0x000000000003bcc8                cmd_prompt
                0x000000000003bd00                install_element
                0x000000000003be50                zencrypt
                0x000000000003bea0                cmd_node_vector
                0x000000000003ddec                cmd_describe_command
                0x000000000003e350                cmd_complete_command_lib
                0x000000000003e3fe                cmd_complete_command
                0x000000000003e5d4                cmd_execute_command
                0x000000000003e6e2                cmd_execute_command_strict
                0x000000000003e704                command_config_read_one_line
                0x000000000003e7b6                config_from_file
                0x000000000003e816                install_default_basic
                0x000000000003e878                install_default
                0x000000000003e910                cmd_init
                0x000000000003eb50                cmd_terminate
 .text          0x000000000003ec7c      0x34c /home/zhurish/workspace/working/zpl-source/source/debug/lib/libbase.a(cli_node.o)
                0x000000000003ecca                cmd_end_node
                0x000000000003ed64                cmd_stop_node
                0x000000000003ed7c                node_parent
                0x000000000003edec                cmd_exit_node
 .text          0x000000000003efc8     0x17e0 /home/zhurish/workspace/working/zpl-source/source/debug/lib/libbase.a(host.o)
                0x000000000003efc8                host_sysconfig_sync
                0x000000000003efd8                host_config_loading
                0x000000000003f01c                host_waitting_loadconfig
                0x000000000003f044                host_loadconfig_done
                0x000000000003f070                host_loadconfig_stats
                0x000000000003f09c                host_waitting_bspinit
                0x000000000003f0d8                host_bspinit_done
                0x000000000003f108                host_config_init
                0x000000000003f3a4                host_config_exit
                0x000000000003f690                host_config_set
                0x000000000003f718                host_config_get
                0x000000000003f738                host_name_get
                0x000000000003f758                host_config_set_api
                0x000000000003fc10                host_config_get_api
                0x000000000004059a                host_system_information_get
                0x00000000000405c8                show_host_system_information
 .text          0x00000000000407a8     0x1e3c /home/zhurish/workspace/working/zpl-source/source/debug/lib/libbase.a(cmd_host.o)
                0x00000000000425c8                cmd_host_init
 .text          0x00000000000425e4      0x4bc /home/zhurish/workspace/working/zpl-source/source/debug/lib/libbase.a(hash.o)
                0x00000000000425e4                hash_create_size
                0x0000000000042660                hash_create
                0x0000000000042680                hash_alloc_intern
                0x00000000000427a8                hash_get
                0x000000000004289a                hash_lookup
                0x00000000000428b8                string_hash_make
                0x00000000000428f4                hash_release
                0x00000000000429a2                hash_iterate
                0x00000000000429f4                hash_clean
                0x0000000000042a70                hash_free
 .text          0x0000000000042aa0      0xbd4 /home/zhurish/workspace/working/zpl-source/source/debug/lib/libbase.a(str.o)
                0x0000000000042aa0                strlcpy
                0x0000000000042aea                strlcat
                0x0000000000042b56                strupr
                0x0000000000042ba8                strlwr
                0x0000000000042bfa                string_have_space
                0x0000000000042c42                all_space
                0x0000000000042c86                all_isdigit
                0x0000000000042cca                str_trim
                0x0000000000042d52                itoa
                0x0000000000042dc4                ftoa
                0x0000000000042e10                dtoa
                0x0000000000042e58                is_hex
                0x0000000000042eaa                str_to_hex
                0x0000000000042eec                hex_to_str
                0x0000000000042f30                atoascii
                0x0000000000042f4c                strchr_count
                0x0000000000042fc8                strchr_step
                0x0000000000043060                strchr_offset
                0x00000000000430f0                strchr_step_num
                0x0000000000043180                os_strstr_last
                0x0000000000043220                str_isempty
                0x000000000004329c                getULong
                0x00000000000432bc                getUShort
                0x00000000000432de                putULong
                0x0000000000043300                putLong
                0x0000000000043324                putUShort
                0x000000000004334a                putShort
                0x0000000000043372                convert_num
                0x0000000000043536                strtonum
 .text          0x0000000000043674        0x0 /home/zhurish/workspace/working/zpl-source/source/debug/lib/libbase.a(moduletypes.o)
 .text          0x0000000000043674     0x14b8 /home/zhurish/workspace/working/zpl-source/source/debug/lib/libbase.a(prefix.o)
                0x0000000000043674                prefix_bit
                0x00000000000436b2                prefix6_bit
                0x00000000000436d4                str2family
                0x0000000000043734                afi2family
                0x0000000000043768                family2afi
                0x000000000004379e                afi2str
                0x00000000000437e0                safi2str
                0x0000000000043850                prefix_match
                0x00000000000438f0                prefix_copy
                0x00000000000439d4                prefix_same
                0x0000000000043a66                prefix_cmp
                0x0000000000043b14                prefix_common_bits
                0x0000000000043bea                prefix_family_str
                0x0000000000043c3c                prefix_ipv4_new
                0x0000000000043c58                prefix_ipv4_free
                0x0000000000043c6e                str2prefix_ipv4
                0x0000000000043d30                str2prefix_eth
                0x0000000000043e54                ether_aton_r
                0x0000000000043ee0                masklen2ip
                0x0000000000043f54                ip_masklen
                0x0000000000043f84                apply_mask_ipv4
                0x0000000000043fb6                prefix_ipv4_any
                0x0000000000043fe2                prefix_ipv6_new
                0x0000000000043ffe                prefix_ipv6_free
                0x0000000000044014                str2prefix_ipv6
                0x00000000000440d6                ip6_masklen
                0x0000000000044132                masklen2ip6
                0x0000000000044188                apply_mask_ipv6
                0x00000000000441fc                str2in6_addr
                0x0000000000044248                apply_mask
                0x0000000000044276                sockunion2prefix
                0x00000000000442f6                sockunion2hostprefix
                0x0000000000044378                prefix2sockunion
                0x00000000000443ca                prefix_blen
                0x00000000000443fc                str2prefix
                0x000000000004444c                prefix2str
                0x0000000000044550                prefix_2_address_str
                0x0000000000044638                prefix_new
                0x0000000000044652                prefix_free
                0x000000000004466e                prefix_zero
                0x0000000000044688                all_digit
                0x00000000000446d0                apply_classful_mask_ipv4
                0x0000000000044736                ipv4_network_addr
                0x000000000004475c                ipv4_broadcast_addr
                0x0000000000044794                netmask_str2prefix_str
                0x0000000000044848                inet6_ntoa
                0x0000000000044878                prefix_check_addr
                0x0000000000044948                inet_address
                0x000000000004499c                inet_ethernet
                0x0000000000044a14                cli_inet_ethernet
                0x0000000000044a8c                cli_ethernet_get
                0x0000000000044ad0                cli_ethernet_cmp
                0x0000000000044aee                get_hostip_byname
 .text          0x0000000000044b2c      0x344 /home/zhurish/workspace/working/zpl-source/source/debug/lib/libbase.a(vector.o)
                0x0000000000044b2c                vector_init
                0x0000000000044b70                vector_only_wrapper_free
                0x0000000000044b8c                vector_only_index_free
                0x0000000000044ba8                vector_free
                0x0000000000044bd6                vector_copy
                0x0000000000044c28                vector_ensure
                0x0000000000044c94                vector_empty_slot
                0x0000000000044ce0                vector_set
                0x0000000000044d26                vector_set_index
                0x0000000000044d64                vector_lookup
                0x0000000000044d94                vector_lookup_ensure
                0x0000000000044dba                vector_unset
                0x0000000000044e2a                vector_count
 .text          0x0000000000044e70      0x9bc /home/zhurish/workspace/working/zpl-source/source/debug/lib/libbase.a(workqueue.o)
                0x0000000000044ecc                work_queue_new
                0x0000000000044fdc                work_queue_free
                0x0000000000045044                work_queue_is_scheduled
                0x00000000000450e0                work_queue_add
                0x00000000000454c0                work_queue_plug
                0x0000000000045508                work_queue_unplug
                0x0000000000045538                work_queue_run
 .text          0x000000000004582c     0x263c /home/zhurish/workspace/working/zpl-source/source/debug/lib/libbase.a(thread.o)
                0x00000000000459f8                thread_master_create
                0x0000000000045aac                thread_master_module_create
                0x0000000000045b20                thread_master_module_lookup
                0x0000000000045d74                thread_master_free
                0x0000000000045e56                thread_timer_remain_second
                0x0000000000045e98                thread_timer_remain
                0x0000000000046210                funcname_thread_add_read
                0x0000000000046256                funcname_thread_add_write
                0x00000000000463d8                funcname_thread_add_timer
                0x000000000004643c                funcname_thread_add_timer_msec
                0x00000000000464d8                funcname_thread_add_timer_tv
                0x000000000004650c                funcname_thread_add_background
                0x00000000000465b8                funcname_thread_add_event
                0x0000000000046654                thread_cancel
                0x0000000000046878                thread_cancel_event
                0x0000000000046b28                thread_fetch_quit
                0x0000000000046b4c                thread_wait_quit
                0x0000000000046b76                thread_fetch
                0x0000000000046e80                thread_mainloop
                0x0000000000046ec2                thread_consumed_time
                0x0000000000046ee4                thread_should_yield
                0x0000000000046f28                thread_getrusage
                0x0000000000047056                thread_call
                0x00000000000471a4                funcname_thread_ready
                0x0000000000047212                funcname_thread_execute
                0x0000000000047dfc                cmd_os_thread_init
 .text          0x0000000000047e68      0x770 /home/zhurish/workspace/working/zpl-source/source/debug/lib/libbase.a(linklist.o)
                0x0000000000047e68                list_new
                0x0000000000047e7a                list_free
                0x0000000000047ec4                listnode_add
                0x0000000000047f38                listnode_add_sort
                0x0000000000048010                listnode_add_after
                0x00000000000480c0                listnode_add_before
                0x0000000000048170                listnode_move_to_tail
                0x00000000000481fe                listnode_delete
                0x000000000004829c                listnode_head
                0x00000000000482e4                list_delete_all_node
                0x0000000000048360                list_delete
                0x00000000000483a4                listnode_lookup
                0x000000000004843c                list_delete_node
                0x0000000000048496                list_add_node_prev
                0x0000000000048514                list_add_node_next
                0x0000000000048590                list_add_list
 .text          0x00000000000485d8      0x3e8 /home/zhurish/workspace/working/zpl-source/source/debug/lib/libbase.a(pqueue.o)
                0x00000000000485d8                trickle_up
                0x0000000000048682                trickle_down
                0x0000000000048774                pqueue_create
                0x00000000000487d6                pqueue_delete
                0x000000000004887c                pqueue_enqueue
                0x00000000000488e6                pqueue_dequeue
                0x0000000000048926                pqueue_remove_at
                0x000000000004899e                pqueue_empty
 .text          0x00000000000489c0      0xee0 /home/zhurish/workspace/working/zpl-source/source/debug/lib/libnsm.a(moduletable.o)
                0x00000000000489c0                pl_module_name_show
                0x0000000000048a58                pl_module_name_init
                0x0000000000048b50                pl_module_init
                0x0000000000048c40                pl_module_exit
                0x0000000000048d30                pl_module_task_name_init
                0x0000000000048e50                pl_module_task_init
                0x0000000000048f68                pl_module_task_exit
                0x0000000000049068                pl_module_cmd_name_init
                0x0000000000049174                pl_module_cmd_init
                0x0000000000049688                pl_module_allinit
                0x0000000000049698                pl_module_allexit
                0x00000000000496a8                pl_module_task_allinit
                0x00000000000496b8                pl_module_task_allexit
                0x00000000000496c8                pl_module_cmd_allinit
                0x00000000000496d8                pl_module_info
                0x00000000000497a4                submodule_setup
 .text          0x00000000000498a0      0x258 /home/zhurish/workspace/working/zpl-source/source/debug/lib/libnsm.a(nsm_main.o)
                0x00000000000498e0                nsm_module_init
                0x0000000000049988                nsm_module_exit
                0x00000000000499de                nsm_module_cmd_init
                0x0000000000049a30                nsm_task_init
                0x0000000000049ab0                nsm_task_exit
 .text          0x0000000000049af8     0x3084 /home/zhurish/workspace/working/zpl-source/source/debug/lib/libnsm.a(nsm_interface.o)
                0x000000000004a1c4                nsm_interface_update_kernel
                0x000000000004a2b4                nsm_interface_create_check_api
                0x000000000004a600                nsm_interface_update_api
                0x000000000004a616                nsm_interface_hw_update_api
                0x000000000004a62c                nsm_interface_create_api
                0x000000000004a6b0                nsm_interface_delete_api
                0x000000000004aa76                nsm_interface_ip_address_add
                0x000000000004ab7a                nsm_interface_ip_address_del
                0x000000000004ac1c                nsm_interface_address_get_api
                0x000000000004ac5e                nsm_interface_mode_set_api
                0x000000000004acfc                nsm_interface_mode_get_api
                0x000000000004ad70                nsm_interface_enca_set_api
                0x000000000004af24                nsm_interface_enca_get_api
                0x000000000004afac                nsm_interface_up_set_api
                0x000000000004b05c                nsm_interface_down_set_api
                0x000000000004b0fc                nsm_interface_desc_set_api
                0x000000000004b146                nsm_interface_linkdetect_set_api
                0x000000000004b1e4                nsm_interface_linkdetect_get_api
                0x000000000004b260                nsm_interface_statistics_get_api
                0x000000000004b296                nsm_interface_address_set_api
                0x000000000004b2dc                nsm_interface_address_unset_api
                0x000000000004b322                nsm_interface_multicast_set_api
                0x000000000004b3c8                nsm_interface_multicast_get_api
                0x000000000004b464                nsm_interface_bandwidth_set_api
                0x000000000004b4f4                nsm_interface_bandwidth_get_api
                0x000000000004b56c                nsm_interface_vrf_set_api
                0x000000000004b600                nsm_interface_vrf_get_api
                0x000000000004b678                nsm_interface_metric_set_api
                0x000000000004b708                nsm_interface_metric_get_api
                0x000000000004b780                nsm_interface_mtu_set_api
                0x000000000004b828                nsm_interface_mtu_get_api
                0x000000000004b8a0                nsm_interface_mac_set_api
                0x000000000004b94c                nsm_interface_mac_get_api
                0x000000000004b9d8                nsm_interface_duplex_set_api
                0x000000000004ba74                nsm_interface_duplex_get_api
                0x000000000004bafc                nsm_interface_speed_set_api
                0x000000000004bb98                nsm_interface_speed_get_api
                0x000000000004bd7c                nsm_interface_show_api
                0x000000000004c34c                nsm_interface_show_brief_api
                0x000000000004c834                nsm_interface_hook_add
                0x000000000004c8bc                nsm_interface_write_hook_add
                0x000000000004ca7c                nsm_interface_write_hook_handler
                0x000000000004cb18                nsm_interface_init
 .text          0x000000000004cb7c     0x151c /home/zhurish/workspace/working/zpl-source/source/debug/lib/libnsm.a(nsm_8021x.o)
                0x000000000004cb7c                nsm_dot1x_init
                0x000000000004cbcc                nsm_dot1x_exit
                0x000000000004ce68                dot1x_callback_api
                0x000000000004cf18                nsm_dot1x_global_enable
                0x000000000004cf7c                nsm_dot1x_global_is_enable
                0x000000000004cfd8                nsm_dot1x_enable_set_api
                0x000000000004d0b0                nsm_dot1x_enable_get_api
                0x000000000004d148                nsm_dot1x_is_enable_api
                0x000000000004d1bc                nsm_dot1x_auth_type_set_api
                0x000000000004d23c                nsm_dot1x_auth_type_get_api
                0x000000000004d2c4                nsm_dot1x_auth_state_set_api
                0x000000000004d344                nsm_dot1x_auth_state_get_api
                0x000000000004d3cc                nsm_dot1x_auth_version_set_api
                0x000000000004d44c                nsm_dot1x_auth_version_get_api
                0x000000000004d4d4                nsm_dot1x_reauthentication_set_api
                0x000000000004d554                nsm_dot1x_reauthentication_get_api
                0x000000000004d5d8                nsm_dot1x_port_mode_set_api
                0x000000000004d658                nsm_dot1x_port_mode_get_api
                0x000000000004d6dc                nsm_dot1x_mac_auth_bypass_set_api
                0x000000000004d75c                nsm_dot1x_mac_auth_bypass_get_api
                0x000000000004d7e4                nsm_dot1x_guest_vlan_set_api
                0x000000000004d864                nsm_dot1x_guest_vlan_get_api
                0x000000000004d8ec                nsm_dot1x_max_user_set_api
                0x000000000004d96c                nsm_dot1x_max_user_get_api
                0x000000000004d9f4                nsm_dot1x_reauth_timeout_set_api
                0x000000000004da74                nsm_dot1x_reauth_timeout_get_api
                0x000000000004dafc                nsm_dot1x_server_timeout_set_api
                0x000000000004db7c                nsm_dot1x_server_timeout_get_api
                0x000000000004dc04                nsm_dot1x_supp_timeout_set_api
                0x000000000004dc84                nsm_dot1x_supp_timeout_get_api
                0x000000000004dd0c                nsm_dot1x_period_timeout_set_api
                0x000000000004dd8c                nsm_dot1x_period_timeout_get_api
                0x000000000004de14                nsm_dot1x_quiet_period_timeout_set_api
                0x000000000004de94                nsm_dot1x_quiet_period_timeout_get_api
                0x000000000004df1c                nsm_dot1x_max_req_set_api
                0x000000000004df9c                nsm_dot1x_max_req_get_api
                0x000000000004e024                nsm_dot1x_reset_api
 .text          0x000000000004e098     0x111c /home/zhurish/workspace/working/zpl-source/source/debug/lib/libnsm.a(nsm_arp.o)
                0x000000000004e098                nsm_ip_arp_init
                0x000000000004e0d8                nsm_ip_arp_exit
                0x000000000004e298                nsm_ip_arp_callback_api
                0x000000000004e350                nsm_ip_arp_lookup_api
                0x000000000004e3b8                nsm_ip_arp_add_api
                0x000000000004e4ac                nsm_ip_arp_del_api
                0x000000000004e568                nsm_ip_arp_get_api
                0x000000000004e5e4                nsm_ip_arp_ageing_time_set_api
                0x000000000004e650                nsm_ip_arp_ageing_time_get_api
                0x000000000004e6c0                nsm_ip_arp_timeout_set_api
                0x000000000004e72c                nsm_ip_arp_timeout_get_api
                0x000000000004e79c                nsm_ip_arp_retry_interval_set_api
                0x000000000004e808                nsm_ip_arp_retry_interval_get_api
                0x000000000004e878                nsm_ip_arp_proxy_set_api
                0x000000000004e8e4                nsm_ip_arp_proxy_get_api
                0x000000000004e954                nsm_ip_arp_proxy_local_set_api
                0x000000000004e9c0                nsm_ip_arp_proxy_local_get_api
                0x000000000004edb0                ip_arp_cleanup_api
                0x000000000004ef38                ip_arp_dynamic_cb
                0x000000000004f144                nsm_ip_arp_config
                0x000000000004f168                nsm_ip_arp_ageing_config
 .text          0x000000000004f1b4      0x7e0 /home/zhurish/workspace/working/zpl-source/source/debug/lib/libnsm.a(nsm_bridge.o)
                0x000000000004f1b4                nsm_bridge_get
                0x000000000004f432                nsm_bridge_add_interface_api
                0x000000000004f4a4                nsm_bridge_del_interface_api
                0x000000000004f516                nsm_bridge_update_member_api
                0x000000000004f5e4                nsm_bridge_interface_stp_set_api
                0x000000000004f620                nsm_bridge_interface_max_age_set_api
                0x000000000004f65c                nsm_bridge_interface_hello_time_set_api
                0x000000000004f698                nsm_bridge_interface_forward_delay_set_api
                0x000000000004f6d4                nsm_bridge_interface_create_api
                0x000000000004f778                nsm_bridge_interface_del_api
                0x000000000004f7d8                nsm_bridge_interface_write_config
                0x000000000004f958                nsm_bridge_init
                0x000000000004f984                nsm_bridge_exit
 .text          0x000000000004f994     0x2db0 /home/zhurish/workspace/working/zpl-source/source/debug/lib/libnsm.a(nsm_dns.o)
                0x000000000004f994                nsm_ip_dns_init
                0x000000000004f9d4                nsm_ip_dns_exit
                0x000000000004fdc4                nsm_ip_dns_callback_api
                0x000000000004fe8c                nsm_ip_host_callback_api
                0x000000000004ff54                nsm_ip_dns_lookup_api
                0x000000000004ffb4                nsm_ip_host_lookup_api
                0x0000000000050014                nsm_ip_dns_add
                0x0000000000050100                nsm_ip_dns_add_api
                0x0000000000050122                nsm_ip_dns_get_api
                0x000000000005021c                nsm_ip_dns_del_by_ifindex
                0x0000000000050424                nsm_ip_dns_del
                0x0000000000050608                nsm_ip_dns_del_api
                0x0000000000050622                nsm_ip_host_add
                0x000000000005071c                nsm_ip_host_add_api
                0x000000000005073a                nsm_ip_host_del
                0x00000000000508b8                nsm_ip_host_del_api
                0x00000000000508d2                nsm_dns_domain_name_add_api
                0x00000000000509a0                nsm_dns_domain_name_del_api
                0x0000000000050a58                nsm_dns_domain_name_dynamic_api
                0x0000000000050ae0                nsm_ip_dns_host_config
                0x0000000000050da0                nsm_ip_dns_host_show
                0x0000000000051fb8                ip_dns_add_job
 .text          0x0000000000052744      0x57c /home/zhurish/workspace/working/zpl-source/source/debug/lib/libnsm.a(nsm_dos.o)
                0x0000000000052744                nsm_dos_init
                0x0000000000052770                nsm_dos_exit
                0x00000000000527ac                nsm_dos_enable
                0x000000000005280c                nsm_dos_is_enable
                0x0000000000052824                nsm_dos_enable_api
                0x000000000005298c                nsm_dos_disable_api
                0x0000000000052af4                nsm_dos_tcp_hdr_min
                0x0000000000052b68                nsm_dos_icmpv4_max
                0x0000000000052bdc                nsm_dos_icmpv6_max
                0x0000000000052c50                nsm_dos_callback_api
 .text          0x0000000000052cc0     0x2d70 /home/zhurish/workspace/working/zpl-source/source/debug/lib/libnsm.a(nsm_firewalld.o)
                0x0000000000052cc0                nsm_firewall_action_string
                0x0000000000052d70                nsm_firewall_type_string
                0x0000000000052e54                nsm_firewall_proto_string
                0x0000000000052f76                nsm_firewall_rule_add_api
                0x0000000000053050                nsm_firewall_rule_del_api
                0x0000000000053130                nsm_firewall_rule_lookup_api
                0x0000000000053198                nsm_firewall_rule_show_api
                0x0000000000054d48                nsm_firewall_rule_foreach_api
                0x0000000000055000                nsm_firewall_zone_add
                0x000000000005508c                nsm_firewall_zone_lookup
                0x0000000000055154                nsm_firewall_zone_del
                0x0000000000055314                nsm_firewall_zone_foreach_api
                0x00000000000557fc                nsm_firewall_init
                0x000000000005585c                nsm_firewall_exit
 .text          0x0000000000055a30      0x978 /home/zhurish/workspace/working/zpl-source/source/debug/lib/libnsm.a(nsm_mac.o)
                0x0000000000055a30                nsm_mac_init
                0x0000000000055c38                nsm_mac_exit
                0x0000000000055cb0                nsm_mac_cleanall_api
                0x0000000000055cc6                nsm_mac_clean_ifindex_api
                0x0000000000055ce6                nsm_mac_clean_vlan_api
                0x0000000000055e30                nsm_mac_callback_api
                0x0000000000055ed0                nsm_mac_lookup_api
                0x0000000000055f40                nsm_mac_add_api
                0x0000000000055fdc                nsm_mac_del_api
                0x0000000000056094                nsm_mac_get_api
                0x0000000000056118                nsm_mac_ageing_time_set_api
                0x0000000000056190                nsm_mac_ageing_time_get_api
                0x0000000000056200                nsm_gmac_set_api
                0x00000000000562cc                nsm_gmac_get_api
 .text          0x00000000000563a8     0x23bc /home/zhurish/workspace/working/zpl-source/source/debug/lib/libnsm.a(nsm_vlan.o)
                0x00000000000563a8                nsm_vlan_init
                0x0000000000056520                nsm_vlan_exit
                0x0000000000056594                nsm_vlan_cleanall
                0x00000000000565a4                nsm_vlan_enable
                0x0000000000056614                nsm_vlan_is_enable
                0x0000000000056a7e                nsm_vlan_create_api
                0x0000000000056b08                nsm_vlan_destroy_api
                0x0000000000056bdc                nsm_vlan_batch_create_api
                0x0000000000056c98                nsm_vlan_batch_destroy_api
                0x0000000000056d94                nsm_vlan_list_create_api
                0x0000000000056f5c                nsm_vlan_list_destroy_api
                0x0000000000057124                nsm_vlan_name_api
                0x00000000000571e0                nsm_vlan_lookup_api
                0x0000000000057240                nsm_vlan_lookup_by_name_api
                0x000000000005729c                nsm_vlan_callback_api
                0x000000000005733c                nsm_interface_add_untag_vlan_api
                0x00000000000573e8                nsm_interface_del_untag_vlan_api
                0x0000000000057494                nsm_interface_lookup_untag_vlan_api
                0x0000000000057518                nsm_interface_add_tag_vlan_api
                0x00000000000575c4                nsm_interface_del_tag_vlan_api
                0x0000000000057670                nsm_interface_lookup_tag_vlan_api
                0x00000000000576f4                nsm_interface_native_vlan_set_api
                0x00000000000577f4                nsm_interface_native_vlan_get_api
                0x00000000000578a8                nsm_interface_access_vlan_set_api
                0x0000000000057968                nsm_interface_access_vlan_unset_api
                0x0000000000057a2c                nsm_interface_access_vlan_get_api
                0x0000000000057ae0                nsm_interface_trunk_add_allowed_vlan_api
                0x0000000000057bdc                nsm_interface_trunk_del_allowed_vlan_api
                0x0000000000057cd8                nsm_interface_trunk_add_allowed_batch_vlan_api
                0x0000000000057e0c                nsm_interface_trunk_del_allowed_batch_vlan_api
                0x0000000000057f44                nsm_interface_trunk_allowed_vlan_list_api
                0x0000000000058194                nsm_vlan_interface_create_api
                0x0000000000058288                nsm_vlan_interface_del_api
                0x0000000000058338                nsm_vlan_interface_write_config
 .text          0x0000000000058764     0x20c0 /home/zhurish/workspace/working/zpl-source/source/debug/lib/libnsm.a(nsm_qos.o)
                0x0000000000058764                nsm_qos_global_enable
                0x000000000005878c                nsm_qos_global_get
                0x00000000000587a4                nsm_qos_shaping_global_enable
                0x00000000000587cc                nsm_qos_shaping_global_get
                0x00000000000587e4                nsm_dscp_to_cos
                0x00000000000587fc                nsm_cos_to_dscp
                0x0000000000058850                nsm_qos_storm_enable_set_api
                0x0000000000058880                nsm_qos_storm_enable_get_api
                0x00000000000588a6                nsm_qos_storm_unicast_set_api
                0x00000000000588e0                nsm_qos_storm_unicast_get_api
                0x0000000000058928                nsm_qos_storm_multicast_set_api
                0x0000000000058962                nsm_qos_storm_multicast_get_api
                0x00000000000589aa                nsm_qos_storm_broadcast_set_api
                0x00000000000589e4                nsm_qos_storm_broadcast_get_api
                0x0000000000058a2c                nsm_qos_rate_set_api
                0x0000000000058a92                nsm_qos_rate_get_api
                0x0000000000058af8                nsm_qos_trust_set_api
                0x0000000000058b28                nsm_qos_trust_get_api
                0x0000000000058b60                nsm_qos_queue_sched_mode_get_api
                0x0000000000058bba                nsm_qos_queue_sched_mode_set_api
                0x0000000000058c10                nsm_qos_class_map_set_api
                0x0000000000058c82                nsm_qos_class_map_get_api
                0x0000000000058cc4                nsm_qos_class_sched_set_api
                0x0000000000058d16                nsm_qos_class_sched_get_api
                0x0000000000058d74                nsm_qos_shaping_set_api
                0x0000000000058da6                nsm_qos_shaping_get_api
                0x0000000000058dde                nsm_qos_port_map_queue_set_api
                0x0000000000058e22                nsm_qos_port_map_queue_get_api
                0x0000000000058e5a                nsm_qos_priority_map_queue_set_api
                0x0000000000058eb8                nsm_qos_priority_map_queue_get_api
                0x0000000000058efa                nsm_qos_cos_map_priority_set_api
                0x0000000000058f58                nsm_qos_cos_map_priority_get_api
                0x0000000000058f9a                nsm_qos_ipprec_map_priority_set_api
                0x0000000000058ff8                nsm_qos_ipprec_map_priority_get_api
                0x000000000005903a                nsm_qos_mplsexp_map_priority_set_api
                0x0000000000059098                nsm_qos_mplsexp_map_priority_get_api
                0x00000000000590da                nsm_qos_dscp_map_priority_set_api
                0x0000000000059138                nsm_qos_dscp_map_priority_get_api
                0x000000000005917a                nsm_qos_cos_replace_set_api
                0x00000000000591cc                nsm_qos_cos_replace_get_api
                0x0000000000059204                nsm_qos_dscp_replace_set_api
                0x0000000000059256                nsm_qos_dscp_replace_get_api
                0x000000000005928e                nsm_qos_service_policy_set_api
                0x00000000000593d4                nsm_qos_service_policy_get_api
                0x000000000005978c                nsm_qos_interface_write_config
                0x000000000005a0d0                nsm_qos_interface_show
                0x000000000005a7c0                nsm_qos_init
                0x000000000005a814                nsm_qos_exit
 .text          0x000000000005a824     0x1840 /home/zhurish/workspace/working/zpl-source/source/debug/lib/libnsm.a(nsm_qos_acl.o)
                0x000000000005abb4                qos_access_filter_alloc
                0x000000000005abc2                qos_access_filter_free
                0x000000000005abe8                qos_access_filter_list_apply
                0x000000000005acf0                qos_access_filter_list_add
                0x000000000005ad0c                qos_access_filter_list_del
                0x000000000005ad28                qos_access_filter_list_lookup
                0x000000000005ad48                qos_access_filter_list_foreach
                0x000000000005b014                qos_access_list_create
                0x000000000005b044                qos_access_list_add
                0x000000000005b05c                qos_access_list_lookup
                0x000000000005b074                qos_access_list_reference
                0x000000000005b0c2                qos_access_list_destroy
                0x000000000005b108                qos_access_list_foreach
                0x000000000005b124                qos_class_map_create
                0x000000000005b164                qos_class_map_lookup
                0x000000000005b220                qos_class_map_reference
                0x000000000005b26e                qos_class_map_add
                0x000000000005b2d4                qos_class_map_del
                0x000000000005b354                qos_class_map_bind_access_list_set
                0x000000000005b438                qos_class_map_bind_access_list_get
                0x000000000005b460                qos_class_map_limit_set
                0x000000000005b4c8                qos_class_map_limit_get
                0x000000000005b530                qos_class_map_foreach
                0x000000000005b5d0                qos_service_policy_create
                0x000000000005b610                qos_service_policy_lookup
                0x000000000005b6cc                qos_service_policy_reference
                0x000000000005b71a                qos_service_policy_add
                0x000000000005b780                qos_service_policy_del
                0x000000000005b808                qos_service_policy_bind_class_map_set
                0x000000000005b8f0                qos_service_policy_bind_class_map_get
                0x000000000005b918                qos_service_policy_foreach
                0x000000000005bab4                qos_access_list_write_config
                0x000000000005bd3c                qos_class_map_write_config
                0x000000000005bdfc                qos_service_policy_write_config
                0x000000000005bff0                qos_access_list_init
                0x000000000005bffe                qos_access_list_exit
                0x000000000005c01c                qos_access_list_clean
                0x000000000005c02c                qos_service_policy_clean
                0x000000000005c048                qos_class_map_clean
 .text          0x000000000005c064     0x1940 /home/zhurish/workspace/working/zpl-source/source/debug/lib/libnsm.a(nsm_trunk.o)
                0x000000000005c064                nsm_trunk_interface_write_config
                0x000000000005c0b0                nsm_port_channel_get
                0x000000000005c240                nsm_trunk_interface_create_api
                0x000000000005c288                nsm_trunk_interface_del_api
                0x000000000005c2d0                nsm_trunk_init
                0x000000000005c4ac                nsm_trunk_exit
                0x000000000005c600                nsm_trunk_enable
                0x000000000005c6a0                nsm_trunk_is_enable
                0x000000000005ca74                l2trunk_lookup_api
                0x000000000005cb28                l2trunk_lookup_interface_count_api
                0x000000000005cbf0                nsm_trunk_create_api
                0x000000000005cd68                nsm_trunk_destroy_api
                0x000000000005ce70                l2trunk_lookup_interface_api
                0x000000000005cf24                nsm_trunk_get_ID_interface_api
                0x000000000005cfec                nsm_trunk_add_interface_api
                0x000000000005d0f8                nsm_trunk_del_interface_api
                0x000000000005d1b0                nsm_trunk_load_balance_api
                0x000000000005d290                nsm_trunk_lacp_port_priority_api
                0x000000000005d39c                nsm_trunk_lacp_timeout_api
                0x000000000005d4a8                nsm_trunk_lacp_system_priority_api
                0x000000000005d570                nsm_trunk_group_callback_api
                0x000000000005d644                nsm_trunk_callback_api
 .text          0x000000000005d9a4     0x1064 /home/zhurish/workspace/working/zpl-source/source/debug/lib/libnsm.a(nsm_mirror.o)
                0x000000000005d9a4                nsm_mirror_init
                0x000000000005d9d4                nsm_mirror_exit
                0x000000000005d9fc                nsm_mirror_destination_set_api
                0x000000000005dae8                nsm_mirror_destination_get_api
                0x000000000005db8c                nsm_mirror_is_destination_api
                0x000000000005dc4c                nsm_mirror_source_set_api
                0x000000000005dec8                nsm_mirror_source_get_api
                0x000000000005dfe0                nsm_mirror_is_source_api
                0x000000000005e324                nsm_mirror_source_mac_filter_set_api
                0x000000000005e940                bulid_mirror_config
 .text          0x000000000005ea08      0x848 /home/zhurish/workspace/working/zpl-source/source/debug/lib/libnsm.a(nsm_tunnel.o)
                0x000000000005ea08                nsm_tunnel_get
                0x000000000005ea98                nsm_tunnel_make_iphdr
                0x000000000005ee58                nsm_tunnel_mode_set_api
                0x000000000005ee8c                nsm_tunnel_mode_get_api
                0x000000000005eec2                nsm_tunnel_source_set_api
                0x000000000005eefc                nsm_tunnel_source_get_api
                0x000000000005ef36                nsm_tunnel_destination_set_api
                0x000000000005ef70                nsm_tunnel_destination_get_api
                0x000000000005efaa                nsm_tunnel_ttl_set_api
                0x000000000005efe2                nsm_tunnel_ttl_get_api
                0x000000000005f01c                nsm_tunnel_mtu_set_api
                0x000000000005f054                nsm_tunnel_mtu_get_api
                0x000000000005f090                nsm_tunnel_tos_set_api
                0x000000000005f0c8                nsm_tunnel_tos_get_api
                0x000000000005f102                nsm_tunnel_interface_create_api
                0x000000000005f1c0                nsm_tunnel_interface_del_api
                0x000000000005f214                nsm_tunnel_init
                0x000000000005f240                nsm_tunnel_exit
 .text          0x000000000005f250      0x6c0 /home/zhurish/workspace/working/zpl-source/source/debug/lib/libnsm.a(nsm_serial.o)
                0x000000000005f250                serial_index_make
                0x000000000005f332                nsm_serial_interface_create_api
                0x000000000005f45c                nsm_serial_interface_del_api
                0x000000000005f4da                nsm_serial_interface_kernel
                0x000000000005f546                nsm_serial_interface_clock
                0x000000000005f574                nsm_serial_interface_databit
                0x000000000005f5a2                nsm_serial_interface_stopbit
                0x000000000005f5d0                nsm_serial_interface_parity
                0x000000000005f5fe                nsm_serial_interface_flow_control
                0x000000000005f62c                nsm_serial_interface_devname
                0x000000000005f6d2                nsm_serial_interface_enca_set_api
                0x000000000005f6ea                nsm_serial_ppp_encapsulation
                0x000000000005f706                nsm_serial_ppp_decapsulation
                0x000000000005f722                nsm_serial_slip_encapsulation
                0x000000000005f73e                nsm_serial_slip_decapsulation
                0x000000000005f75a                nsm_serial_interface_write_config
                0x000000000005f8d4                nsm_serial_init
                0x000000000005f900                nsm_serial_exit
 .text          0x000000000005f910      0x2f8 /home/zhurish/workspace/working/zpl-source/source/debug/lib/libnsm.a(nsm_ppp.o)
                0x000000000005f910                nsm_ppp_interface_redisconnect
                0x000000000005f952                nsm_ppp_interface_enable
                0x000000000005fa20                nsm_ppp_interface_create_api
                0x000000000005faa8                nsm_ppp_interface_del_api
                0x000000000005fb26                nsm_ppp_interface_write_config
                0x000000000005fbcc                nsm_ppp_init
                0x000000000005fbf8                nsm_ppp_exit
 .text          0x000000000005fc08      0x168 /home/zhurish/workspace/working/zpl-source/source/debug/lib/libnsm.a(nsm_security.o)
                0x000000000005fc34                nsm_security_interface_create_api
                0x000000000005fc8a                nsm_security_interface_del_api
                0x000000000005fcfc                nsm_security_interface_write_config
                0x000000000005fd24                nsm_security_init
                0x000000000005fd50                nsm_security_exit
                0x000000000005fd60                cmd_security_init
 .text          0x000000000005fd70      0x220 /home/zhurish/workspace/working/zpl-source/source/debug/lib/libnsm.a(nsm_vlaneth.o)
                0x000000000005fd70                nsm_vlaneth_get
                0x000000000005fd92                nsm_vlaneth_interface_create_api
                0x000000000005fe80                nsm_vlaneth_interface_del_api
                0x000000000005fef2                nsm_vlaneth_interface_vid_set_api
                0x000000000005ff56                nsm_vlaneth_init
                0x000000000005ff80                nsm_vlaneth_exit
 .text          0x000000000005ff90     0x34c0 /home/zhurish/workspace/working/zpl-source/source/debug/lib/libnsm.a(cmd_interface.o)
                0x0000000000063124                cmd_interface_init
 .text          0x0000000000063450      0x310 /home/zhurish/workspace/working/zpl-source/source/debug/lib/libnsm.a(cmd_routerid.o)
                0x0000000000063450                router_id_write
                0x000000000006372c                cmd_router_id_init
 .text          0x0000000000063760      0x8e8 /home/zhurish/workspace/working/zpl-source/source/debug/lib/libnsm.a(cmd_port.o)
                0x0000000000063b8e                nsm_port_interface_config
                0x0000000000063e9a                cmd_port_init
 .text          0x0000000000064048     0x8ed8 /home/zhurish/workspace/working/zpl-source/source/debug/lib/libnsm.a(cmd_route.o)
                0x000000000006becc                cmd_route_init
 .text          0x000000000006cf20     0x119c /home/zhurish/workspace/working/zpl-source/source/debug/lib/libnsm.a(cmd_dot1x.o)
                0x000000000006ddd0                build_dot1x_interface
                0x000000000006de38                build_dot1x_config
                0x000000000006e080                cmd_dot1x_init
 .text          0x000000000006e0bc      0xbc4 /home/zhurish/workspace/working/zpl-source/source/debug/lib/libnsm.a(cmd_arp.o)
                0x000000000006eae4                cmd_arp_init
 .text          0x000000000006ec80      0x3c4 /home/zhurish/workspace/working/zpl-source/source/debug/lib/libnsm.a(cmd_bridge.o)
                0x000000000006f034                cmd_bridge_init
 .text          0x000000000006f044      0x6e8 /home/zhurish/workspace/working/zpl-source/source/debug/lib/libnsm.a(cmd_dns.o)
                0x000000000006f578                nsm_dns_debug_write
                0x000000000006f636                cmd_dns_init
 .text          0x000000000006f72c      0xa10 /home/zhurish/workspace/working/zpl-source/source/debug/lib/libnsm.a(cmd_dos.o)
                0x000000000006ffe6                cmd_dos_init
 .text          0x000000000007013c     0x11e8 /home/zhurish/workspace/working/zpl-source/source/debug/lib/libnsm.a(cmd_mac.o)
                0x0000000000071190                nsm_mac_address_table_config
                0x00000000000711c8                nsm_mac_address_table_ageing_config
                0x0000000000071214                cmd_mac_init
 .text          0x0000000000071324     0x2064 /home/zhurish/workspace/working/zpl-source/source/debug/lib/libnsm.a(cmd_vlan.o)
                0x00000000000731f8                cmd_vlan_init
 .text          0x0000000000073388     0x1f74 /home/zhurish/workspace/working/zpl-source/source/debug/lib/libnsm.a(cmd_qos.o)
                0x0000000000075260                cmd_qos_init
 .text          0x00000000000752fc     0x63a4 /home/zhurish/workspace/working/zpl-source/source/debug/lib/libnsm.a(cmd_qos_acl.o)
                0x000000000007b4e0                cmd_qos_acl_init
 .text          0x000000000007b6a0      0x694 /home/zhurish/workspace/working/zpl-source/source/debug/lib/libnsm.a(cmd_trunk.o)
                0x000000000007bd14                cmd_trunk_init
 .text          0x000000000007bd34      0x7f8 /home/zhurish/workspace/working/zpl-source/source/debug/lib/libnsm.a(cmd_mirror.o)
                0x000000000007c4b0                cmd_mirror_init
 .text          0x000000000007c52c      0xca8 /home/zhurish/workspace/working/zpl-source/source/debug/lib/libnsm.a(cmd_tunnel.o)
                0x000000000007d1b4                cmd_tunnel_init
 .text          0x000000000007d1d4      0x488 /home/zhurish/workspace/working/zpl-source/source/debug/lib/libnsm.a(cmd_serial.o)
                0x000000000007d64c                cmd_serial_init
 .text          0x000000000007d65c      0x7c4 /home/zhurish/workspace/working/zpl-source/source/debug/lib/libnsm.a(cmd_ppp.o)
                0x000000000007de10                cmd_ppp_init
 .text          0x000000000007de20      0x73c /home/zhurish/workspace/working/zpl-source/source/debug/lib/libnsm.a(nsm_halpal.o)
                0x000000000007de20                nsm_halpal_interface_add
                0x000000000007de54                nsm_halpal_interface_delete
                0x000000000007de7c                nsm_halpal_interface_up
                0x000000000007dec6                nsm_halpal_interface_down
                0x000000000007df10                nsm_halpal_interface_change
                0x000000000007df38                nsm_halpal_interface_refresh_flag
                0x000000000007df60                nsm_halpal_interface_update_flag
                0x000000000007df8c                nsm_halpal_interface_ifindex
                0x000000000007dfb4                nsm_halpal_interface_mtu
                0x000000000007dfe0                nsm_halpal_interface_metric
                0x000000000007dffc                nsm_halpal_interface_vrf
                0x000000000007e02c                nsm_halpal_interface_multicast
                0x000000000007e048                nsm_halpal_interface_bandwidth
                0x000000000007e064                nsm_halpal_interface_set_address
                0x000000000007e094                nsm_halpal_interface_unset_address
                0x000000000007e0ba                nsm_halpal_interface_set_dstaddr
                0x000000000007e0e0                nsm_halpal_interface_unset_dstaddr
                0x000000000007e106                nsm_halpal_interface_change_dhcp
                0x000000000007e12c                nsm_halpal_interface_mac
                0x000000000007e15c                nsm_halpal_interface_get_statistics
                0x000000000007e184                nsm_halpal_interface_speed
                0x000000000007e1aa                nsm_halpal_interface_mode
                0x000000000007e1c6                nsm_halpal_interface_enca
                0x000000000007e232                nsm_halpal_interface_linkdetect
                0x000000000007e24e                nsm_halpal_interface_stp
                0x000000000007e274                nsm_halpal_interface_loop
                0x000000000007e290                nsm_halpal_interface_8021x
                0x000000000007e2ac                nsm_halpal_interface_duplex
                0x000000000007e2d2                nsm_halpal_iproute_rib_action
                0x000000000007e2f8                nsm_halpal_interface_vlan_set
                0x000000000007e31e                nsm_halpal_interface_vlanpri_set
                0x000000000007e340                nsm_halpal_interface_promisc_link
                0x000000000007e366                nsm_halpal_create_vr
                0x000000000007e388                nsm_halpal_delete_vr
                0x000000000007e3aa                nsm_halpal_interface_arp_add
                0x000000000007e3d0                nsm_halpal_interface_arp_delete
                0x000000000007e3f2                nsm_halpal_interface_arp_request
                0x000000000007e414                nsm_halpal_arp_gratuitousarp_enable
                0x000000000007e436                nsm_halpal_arp_ttl
                0x000000000007e454                nsm_halpal_arp_age_timeout
                0x000000000007e472                nsm_halpal_arp_retry_interval
                0x000000000007e490                nsm_halpal_firewall_portmap_rule_set
                0x000000000007e4b2                nsm_halpal_firewall_port_filter_rule_set
                0x000000000007e4d4                nsm_halpal_firewall_mangle_rule_set
                0x000000000007e4f6                nsm_halpal_firewall_raw_rule_set
                0x000000000007e518                nsm_halpal_firewall_snat_rule_set
                0x000000000007e53a                nsm_halpal_firewall_dnat_rule_set
 .text          0x000000000007e55c      0x384 /home/zhurish/workspace/working/zpl-source/source/debug/lib/libnsm.a(nsm_pal.o)
                0x000000000007e55c                nsm_pal_interface_add
                0x000000000007e590                nsm_pal_interface_delete
                0x000000000007e5b8                nsm_pal_interface_up
                0x000000000007e5f6                nsm_pal_interface_down
                0x000000000007e634                nsm_pal_interface_mtu
                0x000000000007e660                nsm_pal_interface_metric
                0x000000000007e67c                nsm_pal_interface_vrf
                0x000000000007e6ac                nsm_pal_interface_multicast
                0x000000000007e6c8                nsm_pal_interface_bandwidth
                0x000000000007e6e4                nsm_pal_interface_set_address
                0x000000000007e714                nsm_pal_interface_unset_address
                0x000000000007e73a                nsm_pal_interface_mac
                0x000000000007e76a                nsm_pal_interface_get_statistics
                0x000000000007e792                nsm_pal_interface_speed
                0x000000000007e7b8                nsm_pal_interface_mode
                0x000000000007e7d4                nsm_pal_interface_enca
                0x000000000007e840                nsm_pal_interface_linkdetect
                0x000000000007e85c                nsm_pal_interface_stp
                0x000000000007e882                nsm_pal_interface_loop
                0x000000000007e89e                nsm_pal_interface_8021x
                0x000000000007e8ba                nsm_pal_interface_duplex
 .text          0x000000000007e8e0      0x8d0 /home/zhurish/workspace/working/zpl-source/source/debug/lib/libos.a(os_ipstack.o)
                0x000000000007e8e0                ipstack_sockstr
                0x000000000007e954                ipstack_invalid
                0x000000000007e978                ipstack_bzero
                0x000000000007e99c                ipstack_init
                0x000000000007e9c2                ipstack_get_blocking
                0x000000000007e9f6                ipstack_set_nonblocking
                0x000000000007ea2a                ipstack_set_blocking
                0x000000000007ea5e                ipstack_same
                0x000000000007eaa4                ipstack_copy
                0x000000000007eacc                ipstack_max
                0x000000000007eb14                ipstack_open
                0x000000000007eb54                ipstack_socket
                0x000000000007eb90                ipstack_socket_vrf
                0x000000000007ebf6                ipstack_socketpair
                0x000000000007ec42                ipstack_bind
                0x000000000007ec84                ipstack_getsockname
                0x000000000007ecc6                ipstack_connect
                0x000000000007ed08                ipstack_getpeername
                0x000000000007ed4a                ipstack_send
                0x000000000007ed8c                ipstack_recv
                0x000000000007edce                ipstack_sendto
                0x000000000007ee18                ipstack_recvfrom
                0x000000000007ee62                ipstack_sendmsg
                0x000000000007eea4                ipstack_recvmsg
                0x000000000007eee6                ipstack_getsockopt
                0x000000000007ef2c                ipstack_setsockopt
                0x000000000007ef72                ipstack_listen
                0x000000000007efb0                ipstack_accept
                0x000000000007f01a                ipstack_shutdown
                0x000000000007f058                ipstack_close
                0x000000000007f090                ipstack_ioctl
                0x000000000007f0d2                ipstack_write
                0x000000000007f118                ipstack_writev
                0x000000000007f142                ipstack_read
                0x000000000007f188                ipstack_socketselect
 .text          0x000000000007f1b0      0x794 /home/zhurish/workspace/working/zpl-source/source/debug/lib/libos.a(os_job.o)
                0x000000000007f1b0                os_job_init
                0x000000000007f2b8                os_job_exit
                0x000000000007f3b0                os_job_load
                0x000000000007f454                os_job_del
                0x000000000007f51c                os_job_add_entry
                0x000000000007f6ec                os_job_show
 .text          0x000000000007f944      0x552 /home/zhurish/workspace/working/zpl-source/source/debug/lib/libos.a(os_list.o)
                0x000000000007f944                lstLibInit
                0x000000000007f952                lstInit
                0x000000000007f978                lstInitFree
                0x000000000007f9a6                lstSortInit
                0x000000000007f9d4                lstAdd
                0x000000000007f9f4                lstConcat
                0x000000000007fa5a                lstCount
                0x000000000007fa72                lstDelete
                0x000000000007faca                lstExtract
                0x000000000007fb62                lstFirst
                0x000000000007fb7a                lstGet
                0x000000000007fbc6                lstInsert
                0x000000000007fc28                lstAddSort
                0x000000000007fcf2                lstLast
                0x000000000007fd0a                lstNext
                0x000000000007fd22                lstNth
                0x000000000007fd8e                lstPrevious
                0x000000000007fda6                lstNStep
                0x000000000007fdf0                lstFind
                0x000000000007fe3a                lstFree
 .text          0x000000000007fe96      0x328 /home/zhurish/workspace/working/zpl-source/source/debug/lib/libos.a(os_sem.o)
                0x000000000007fe96                os_sem_init
                0x000000000007fed6                os_sem_give
                0x000000000007fefc                os_sem_take
                0x000000000007ff9e                os_sem_exit
                0x000000000007ffce                os_mutex_init
                0x000000000008000c                os_mutex_unlock
                0x0000000000080032                os_mutex_lock
                0x00000000000800d4                os_mutex_exit
                0x0000000000080104                os_spin_init
                0x0000000000080142                os_spin_unlock
                0x0000000000080168                os_spin_lock
                0x000000000008018e                os_spin_exit
 *fill*         0x00000000000801be        0x2 
 .text          0x00000000000801c0     0x27bc /home/zhurish/workspace/working/zpl-source/source/debug/lib/libos.a(os_task.o)
                0x00000000000801c0                os_limit_stack_size
                0x0000000000080274                os_limit_core_size
                0x0000000000080328                os_task_give_broadcast
                0x0000000000080344                os_task_init
                0x00000000000803f4                os_task_exit
                0x0000000000080454                os_task_sigmask
                0x00000000000804aa                os_task_sigexecute
                0x0000000000080500                os_task_sigmaskall
                0x0000000000080640                os_task_add_start_hook
                0x00000000000806a8                os_task_add_create_hook
                0x000000000008070c                os_task_add_destroy_hook
                0x0000000000080774                os_task_del_start_hook
                0x00000000000807e4                os_task_del_create_hook
                0x0000000000080850                os_task_del_destroy_hook
                0x0000000000080ae0                os_task_lookup_by_name
                0x0000000000080b08                os_task_tcb_self
                0x0000000000080b34                os_task_tcb_get
                0x0000000000080b5e                os_task_pthread_self
                0x0000000000080b6c                os_task_id_self
                0x0000000000080b9c                os_task_gettid
                0x0000000000080bac                os_task_self_name_alisa
                0x0000000000080cf8                os_task_name_get
                0x0000000000080d8c                os_task_2_name
                0x0000000000080dd8                os_task_priority_set
                0x0000000000080ecc                os_task_priority_get
                0x0000000000080f40                os_task_supend
                0x0000000000080fb0                os_task_resume
                0x0000000000081020                os_task_yield
                0x0000000000081032                os_task_delay
                0x0000000000081950                os_task_entry_destroy
                0x0000000000081aec                os_task_destroy
                0x0000000000081f38                os_task_entry_create
                0x0000000000081fc4                os_task_entry_add
                0x0000000000082030                os_task_priv_set
                0x0000000000082104                os_task_priv_get
                0x00000000000821dc                os_task_del
                0x000000000008220c                os_task_refresh_id
                0x000000000008228c                os_task_foreach
                0x0000000000082350                os_task_cli_hook_set
                0x0000000000082848                os_task_show
 .text          0x000000000008297c     0x1e68 /home/zhurish/workspace/working/zpl-source/source/debug/lib/libos.a(os_time.o)
                0x000000000008297c                os_system_time_base
                0x00000000000829d8                os_system_tick
                0x0000000000082a90                os_usleep_interrupt
                0x0000000000082aa6                os_msleep_interrupt
                0x0000000000082ac6                os_usleep
                0x0000000000082ade                os_msleep
                0x0000000000082b00                os_sleep
                0x0000000000082b18                os_timeval_adjust
                0x0000000000082b8a                os_timeval_subtract
                0x0000000000082bc8                os_timeval_cmp
                0x0000000000082bfc                os_timeval_elapsed
                0x0000000000082c34                os_gettimeofday
                0x0000000000082c4e                os_get_realtime
                0x0000000000082c92                os_get_monotonic
                0x0000000000082cd6                os_get_monotonic_msec
                0x0000000000082d1c                os_gettime
                0x0000000000082d8e                os_build_time2date
                0x0000000000082e90                os_date2build_time
                0x0000000000082f08                os_timestamp_spilt
                0x0000000000083070                os_time_min
                0x00000000000830e8                os_time_max
                0x0000000000083160                os_time
                0x0000000000083178                os_monotonic_time
                0x00000000000831a0                os_tmtime_get
                0x0000000000083232                os_time_fmt
                0x0000000000083510                os_time_string
                0x000000000008369e                os_time_init
                0x00000000000837e4                os_time_exit
                0x000000000008391c                os_time_load
                0x0000000000083940                os_time_clean
                0x0000000000083db0                os_time_create_entry
                0x0000000000083f1c                os_time_lookup
                0x0000000000083f7c                os_time_destroy
                0x0000000000084048                os_time_cancel
                0x000000000008410c                os_time_restart
                0x00000000000841f8                os_time_show
                0x0000000000084594                os_time_set_api
                0x0000000000084624                os_timezone_set_api
                0x00000000000846e8                os_timezone_offset_api
 .text          0x00000000000847e4      0xa9c /home/zhurish/workspace/working/zpl-source/source/debug/lib/libos.a(os_util.o)
                0x00000000000847e4                os_loghex
                0x0000000000084878                os_pipe_create
                0x0000000000084960                os_pipe_close
                0x000000000008497e                os_get_blocking
                0x00000000000849ae                os_set_nonblocking
                0x0000000000084a20                os_set_blocking
                0x0000000000084ac8                os_log
                0x0000000000084b10                os_vslog
                0x0000000000084c50                pid2name
                0x0000000000084d38                name2pid
                0x0000000000084f7c                os_pid_set
                0x000000000008501c                os_pid_get
                0x00000000000850c8                os_thread_once
                0x00000000000850fa                fdprintf
                0x00000000000851ac                hostname_ipv4_address
                0x0000000000085214                hostname_ipv6_address
 .text          0x0000000000085280     0x248c /home/zhurish/workspace/working/zpl-source/source/debug/lib/libos.a(os_socket.o)
                0x0000000000085280                os_sock_create
                0x00000000000852c6                os_sock_bind
                0x0000000000085350                os_sock_listen
                0x0000000000085380                os_sock_accept
                0x00000000000853f4                os_tcp_sock_state
                0x0000000000085430                os_sock_connect
                0x00000000000854b4                os_sock_connect_nonblock
                0x000000000008558c                os_sock_connect_timeout
                0x0000000000085780                os_sock_client_write
                0x0000000000085814                os_sock_raw_create
                0x0000000000085850                os_sock_raw_bind
                0x00000000000858d4                os_sock_raw_sendto
                0x0000000000085974                os_unix_sockpair_create
                0x00000000000859d2                os_sock_unix_server_create
                0x0000000000085b48                os_sock_unix_accept
                0x0000000000085bcc                os_sock_unix_client_create
                0x0000000000085d40                os_sock_unix_client_write
                0x0000000000085e44                os_select_wait
                0x0000000000085ece                os_write_timeout
                0x0000000000085fcc                os_read_timeout
                0x00000000000860ca                os_write_iov
                0x0000000000086122                os_writemsg
                0x0000000000086234                ipstack_sock_create
                0x00000000000862a6                ipstack_sock_bind
                0x0000000000086334                ipstack_sock_listen
                0x0000000000086370                ipstack_sock_accept
                0x00000000000863fc                ipstack_tcp_sock_state
                0x000000000008643c                ipstack_sock_connect
                0x00000000000864c4                ipstack_sock_connect_nonblock
                0x00000000000865b0                ipstack_sock_connect_timeout
                0x00000000000868e8                ipstack_sock_client_write
                0x0000000000086988                ipstack_sock_raw_create
                0x00000000000869ec                ipstack_sock_raw_bind
                0x0000000000086a74                ipstack_sock_raw_sendto
                0x0000000000086b1c                ipstack_unix_sockpair_create
                0x0000000000086bc0                ipstack_sock_unix_server_create
                0x0000000000086da4                ipstack_sock_unix_accept
                0x0000000000086e48                ipstack_sock_unix_client_create
                0x0000000000087020                ipstack_sock_unix_client_write
                0x0000000000087124                ipstack_select_wait
                0x00000000000871b2                ipstack_write_timeout
                0x00000000000873a0                ipstack_read_timeout
                0x000000000008758e                ipstack_write_iov
                0x00000000000875ee                ipstack_writemsg
 .text          0x000000000008770c      0x27c /home/zhurish/workspace/working/zpl-source/source/debug/lib/libos.a(os_process.o)
                0x000000000008770c                super_system
                0x0000000000087784                super_output_system
                0x000000000008782c                super_input_system
                0x00000000000878c8                super_system_execvp
                0x00000000000878e4                child_process_create
                0x0000000000087900                child_process_destroy
                0x000000000008792a                child_process_kill
                0x0000000000087954                child_process_wait
 .text          0x0000000000087988      0x630 /home/zhurish/workspace/working/zpl-source/source/debug/lib/libos.a(os_file.o)
                0x0000000000087988                os_file_access
                0x00000000000879ae                os_write_file
                0x00000000000879fc                os_read_file
                0x0000000000087a44                os_mkdir
                0x0000000000087c5c                os_rmdir
                0x0000000000087d30                os_getpwddir
                0x0000000000087d58                os_file_size
                0x0000000000087daa                os_file_size_string
 .text          0x0000000000087fb8      0x44c /home/zhurish/workspace/working/zpl-source/source/debug/lib/libos.a(os_signal.o)
                0x0000000000087fb8                os_signal_add
                0x0000000000088014                os_signal_init
                0x000000000008815c                os_signal_process
                0x0000000000088230                os_signal_default
                0x00000000000882b4                os_register_signal
 .text          0x0000000000088404      0x12c /home/zhurish/workspace/working/zpl-source/source/debug/lib/libos.a(os_backtrace.o)
                0x0000000000088404                zpl_backtrace_symb_set
                0x000000000008845c                zpl_backtrace_symb_info
 .text          0x0000000000088530      0x31c /home/zhurish/workspace/working/zpl-source/source/debug/lib/libos.a(libnetpro.o)
                0x0000000000088530                ip_protocol_type
                0x0000000000088594                ip_protocol_type_string
                0x00000000000885f8                eth_protocol_type
                0x0000000000088660                eth_protocol_type_string
                0x00000000000886c4                port_operation_type
                0x000000000008879c                port_operation_type_string
 .text          0x000000000008884c       0xcc /home/zhurish/workspace/working/zpl-source/source/debug/lib/libos.a(zpl_errno.o)
                0x000000000008884c                zpl_strerror
                0x00000000000888c0                ipstack_strerror
                0x00000000000888ec                ipstack_ipcomstrerror
 .text          0x0000000000088918      0xb94 /home/zhurish/workspace/working/zpl-source/source/debug/lib/libpal.a(pal_driver.o)
                0x0000000000088918                pal_interface_up
                0x0000000000088950                pal_interface_down
                0x0000000000088988                pal_interface_update_flag
                0x00000000000889c4                pal_interface_refresh_flag
                0x00000000000889fc                pal_interface_ifindex
                0x0000000000088a34                pal_interface_set_vr
                0x0000000000088a7c                pal_interface_set_mtu
                0x0000000000088ac0                pal_interface_set_lladdr
                0x0000000000088b08                pal_interface_get_lladdr
                0x0000000000088b48                pal_interface_create
                0x0000000000088b80                pal_interface_destroy
                0x0000000000088bc0                pal_interface_change
                0x0000000000088c00                pal_interface_vlan_set
                0x0000000000088c40                pal_interface_vlanpri_set
                0x0000000000088c84                pal_interface_promisc_link
                0x0000000000088ccc                pal_interface_change_dhcp
                0x0000000000088d14                pal_interface_ipv4_dstaddr_add
                0x0000000000088d58                pal_interface_ipv4_dstaddr_delete
                0x0000000000088d9c                pal_interface_ipv4_replace
                0x0000000000088de0                pal_interface_ipv4_add
                0x0000000000088e24                pal_interface_ipv4_delete
                0x0000000000088e68                pal_interface_ipv6_add
                0x0000000000088eb4                pal_interface_ipv6_delete
                0x0000000000088f00                pal_iproute_rib_action
                0x0000000000088f44                pal_interface_arp_add
                0x0000000000088f8c                pal_interface_arp_delete
                0x0000000000088fd0                pal_interface_arp_request
                0x0000000000089014                pal_arp_gratuitousarp_enable
                0x0000000000089050                pal_arp_ttl
                0x0000000000089088                pal_arp_age_timeout
                0x00000000000890c0                pal_arp_retry_interval
                0x00000000000890fc                pal_create_vr
                0x000000000008913c                pal_delete_vr
                0x000000000008917c                pal_interface_update_statistics
                0x00000000000891c0                pal_firewall_portmap_rule_set
                0x0000000000089200                pal_firewall_port_filter_rule_set
                0x0000000000089240                pal_firewall_mangle_rule_set
                0x0000000000089280                pal_firewall_raw_rule_set
                0x00000000000892c0                pal_firewall_snat_rule_set
                0x0000000000089300                pal_firewall_dnat_rule_set
                0x0000000000089340                ipforward
                0x000000000008934e                ipforward_on
                0x000000000008935c                ipforward_off
                0x000000000008936a                ipforward_ipv6
                0x0000000000089378                ipforward_ipv6_on
                0x0000000000089386                ipforward_ipv6_off
                0x0000000000089464                pal_module_init
 .text          0x00000000000894ac      0x5e4 /home/zhurish/workspace/working/zpl-source/source/debug/lib/libpal.a(kernel_packet.o)
                0x0000000000089a7c                kernel_packet_init
 .text          0x0000000000089a90      0x9cc /home/zhurish/workspace/working/zpl-source/source/debug/lib/libpal.a(kernel_arp.o)
                0x000000000008a34e                ip_arp_stack_init
 .text          0x000000000008a45c      0x29c /home/zhurish/workspace/working/zpl-source/source/debug/lib/libpal.a(kernel_ipforward.o)
                0x000000000008a47a                _ipkernel_ipforward
                0x000000000008a518                _ipkernel_ipforward_on
                0x000000000008a574                _ipkernel_ipforward_off
                0x000000000008a5d0                _ipkernel_ipforward_ipv6
                0x000000000008a640                _ipkernel_ipforward_ipv6_on
                0x000000000008a69c                _ipkernel_ipforward_ipv6_off
 .text          0x000000000008a6f8      0x248 /home/zhurish/workspace/working/zpl-source/source/debug/lib/libpal.a(kernel_driver.o)
                0x000000000008a6f8                ip_ifp_stack_init
 .text          0x000000000008a940      0xa04 /home/zhurish/workspace/working/zpl-source/source/debug/lib/libpal.a(kernel_ioctl.o)
                0x000000000008a940                _ipkernel_ifreq_set_name
                0x000000000008a960                _ipkernel_if_ioctl
                0x000000000008aa40                _ipkernel_if_ioctl_ipv6
                0x000000000008ab98                _ipkernel_if_set_metric
                0x000000000008ac90                _ipkernel_if_set_mtu
                0x000000000008ad2c                _ipkernel_if_get_hwaddr
                0x000000000008adc8                _ipkernel_if_get_flags
                0x000000000008b000                _ipkernel_if_set_prefix
                0x000000000008b01c                _ipkernel_if_unset_prefix
                0x000000000008b038                _ipkernel_if_set_dst_prefix
                0x000000000008b0bc                _ipkernel_if_unset_dst_prefix
                0x000000000008b144                _ipkernel_if_prefix_add_ipv6
                0x000000000008b1c0                _ipkernel_if_prefix_delete_ipv6
                0x000000000008b23c                _ipkernel_if_set_mac
                0x000000000008b2e4                _ipkernel_if_set_up
                0x000000000008b304                _ipkernel_if_set_down
                0x000000000008b324                _ipkernel_if_update_flags
 .text          0x000000000008b344      0x440 /home/zhurish/workspace/working/zpl-source/source/debug/lib/libpal.a(kernel_vrf.o)
                0x000000000008b51c                _ipkernel_vrf_enable
                0x000000000008b644                _ipkernel_vrf_disable
                0x000000000008b6dc                vrf_socket
 .text          0x000000000008b784      0x2ac /home/zhurish/workspace/working/zpl-source/source/debug/lib/libpal.a(kernel_nladdress.o)
                0x000000000008b9f0                _netlink_address_add_ipv4
                0x000000000008ba10                _netlink_address_delete_ipv4
 .text          0x000000000008ba30      0x340 /home/zhurish/workspace/working/zpl-source/source/debug/lib/libpal.a(kernel_nliface.o)
                0x000000000008bd38                _netlink_create_interface
                0x000000000008bd54                _netlink_destroy_interface
 .text          0x000000000008bd70     0x13ac /home/zhurish/workspace/working/zpl-source/source/debug/lib/libpal.a(kernel_firewalld.o)
                0x000000000008bd70                _ipkernel_firewall_portmap_rule_set
                0x000000000008c148                _ipkernel_firewall_port_filter_rule_set
                0x000000000008c660                _ipkernel_firewall_mangle_rule_set
                0x000000000008c68e                _ipkernel_firewall_raw_rule_set
                0x000000000008c6bc                _ipkernel_firewall_snat_rule_set
                0x000000000008caf0                _ipkernel_firewall_dnat_rule_set
 .text          0x000000000008d11c     0x1010 /home/zhurish/workspace/working/zpl-source/source/debug/lib/libpal.a(kernel_netlink.o)
                0x000000000008d11c                _netlink_msg_type_to_str
                0x000000000008d144                _netlink_rtproto_to_str
                0x000000000008d16c                _netlink_addattr_l
                0x000000000008d1ea                _netlink_rta_addattr_l
                0x000000000008d270                _netlink_addattr32
                0x000000000008d2e4                _netlink_addattr_nest
                0x000000000008d31a                _netlink_addattr_nest_end
                0x000000000008d34e                _netlink_parse_rtattr
                0x000000000008d3be                _netlink_interface_update_hw_addr
                0x000000000008d474                _netlink_route_debug
                0x000000000008d530                _netlink_set_ifindex
                0x000000000008d61c                _netlink_request
                0x000000000008d744                _netlink_parse_info
                0x000000000008db9c                _netlink_talk
                0x000000000008dd94                _netlink_socket
                0x000000000008dfcc                _netlink_close
                0x000000000008e07c                _netlink_open
                0x000000000008e0f0                _netlink_load_all
 .text          0x000000000008e12c     0x13ec /home/zhurish/workspace/working/zpl-source/source/debug/lib/libproduct.a(hal_client.o)
                0x000000000008e24c                hal_client_create
                0x000000000008e274                hal_client_destroy
                0x000000000008e848                hal_client_send_return
                0x000000000008ea18                hal_client_start
                0x000000000008f170                hal_client_event
                0x000000000008f358                hal_client_callback
                0x000000000008f4a8                hal_client_bsp_init
                0x000000000008f4f2                hal_client_bsp_porttbl
 .text          0x000000000008f518      0x5f8 /home/zhurish/workspace/working/zpl-source/source/debug/lib/libproduct.a(bsp_driver.o)
                0x000000000008f518                bsp_driver_module_check
                0x000000000008f5c8                bsp_driver_msg_handle
                0x000000000008f6b4                bsp_module_func
                0x000000000008f720                bsp_driver_init
                0x000000000008f774                bsp_driver_exit
                0x000000000008f7a8                bsp_driver_task_init
                0x000000000008f824                bsp_driver_task_exit
                0x000000000008f860                bsp_module_init
                0x000000000008f904                bsp_module_task_init
                0x000000000008f924                bsp_module_start
                0x000000000008fa88                bsp_module_exit
                0x000000000008facc                bsp_module_task_exit
 .text          0x000000000008fb10      0x6e8 /home/zhurish/workspace/working/zpl-source/source/debug/lib/libproduct.a(bsp_global.o)
                0x0000000000090090                bsp_global_module_handle
 .text          0x00000000000901f8      0xc40 /home/zhurish/workspace/working/zpl-source/source/debug/lib/libproduct.a(bsp_port.o)
                0x0000000000090c88                bsp_port_module_handle
 .text          0x0000000000090e38      0x5ec /home/zhurish/workspace/working/zpl-source/source/debug/lib/libproduct.a(bsp_mstp.o)
                0x0000000000091270                bsp_mstp_module_handle
 .text          0x0000000000091424      0x474 /home/zhurish/workspace/working/zpl-source/source/debug/lib/libproduct.a(bsp_8021x.o)
                0x00000000000916fc                bsp_8021x_module_handle
 .text          0x0000000000091898      0x438 /home/zhurish/workspace/working/zpl-source/source/debug/lib/libproduct.a(bsp_dos.o)
                0x0000000000091b64                bsp_dos_module_handle
 .text          0x0000000000091cd0      0x4c4 /home/zhurish/workspace/working/zpl-source/source/debug/lib/libproduct.a(bsp_mac.o)
                0x000000000009202c                bsp_mac_module_handle
 .text          0x0000000000092194      0xa9c /home/zhurish/workspace/working/zpl-source/source/debug/lib/libproduct.a(bsp_vlan.o)
                0x000000000009285c                bsp_vlan_module_handle
 .text          0x0000000000092c30      0x3a0 /home/zhurish/workspace/working/zpl-source/source/debug/lib/libproduct.a(bsp_qinq.o)
                0x0000000000092e54                bsp_qinq_module_handle
 .text          0x0000000000092fd0      0x890 /home/zhurish/workspace/working/zpl-source/source/debug/lib/libproduct.a(bsp_qos.o)
                0x00000000000936d4                bsp_qos_module_handle
 .text          0x0000000000093860      0x540 /home/zhurish/workspace/working/zpl-source/source/debug/lib/libproduct.a(bsp_trunk.o)
                0x0000000000093bd8                bsp_trunk_module_handle
 .text          0x0000000000093da0      0x424 /home/zhurish/workspace/working/zpl-source/source/debug/lib/libproduct.a(bsp_mirror.o)
                0x0000000000093ff0                bsp_mirror_module_handle
 .text          0x00000000000941c4      0x4ec /home/zhurish/workspace/working/zpl-source/source/debug/lib/libproduct.a(bsp_cpu.o)
                0x0000000000094534                bsp_cpu_module_handle
 .text          0x00000000000946b0     0x5720 /home/zhurish/workspace/working/zpl-source/source/debug/lib/librtpl.a(nsm_rib.o)
                0x0000000000094848                rib_nexthop_add
                0x00000000000948ca                rib_nexthop_ifindex_add
                0x0000000000094908                rib_nexthop_ifname_add
                0x000000000009494e                rib_nexthop_ipv4_add
                0x00000000000949a2                rib_nexthop_ipv4_ifindex_add
                0x00000000000949fe                rib_nexthop_ipv6_add
                0x0000000000094aa6                rib_nexthop_ipv6_ifindex_add
                0x0000000000094afa                rib_nexthop_blackhole_add
                0x0000000000094b42                nexthop_has_fib_child
                0x000000000009515c                rib_match_ipv4_safi
                0x00000000000952c8                rib_match_ipv4_multicast
                0x0000000000095810                multicast_mode_ipv4_set
                0x000000000009587c                multicast_mode_ipv4_get
                0x0000000000095894                rib_lookup_ipv4
                0x00000000000959b2                rib_lookup_ipv4_route
                0x0000000000095b9c                rib_match_ipv6
                0x000000000009632a                rib_gc_dest
                0x000000000009707c                rib_add_ipv4
                0x0000000000097334                _rib_dump
                0x00000000000975dc                rib_lookup_and_dump
                0x00000000000977a4                rib_add_ipv4_multipath
                0x00000000000979d0                rib_delete_ipv4
                0x00000000000983dc                static_add_ipv4_safi
                0x0000000000098646                static_delete_ipv4_safi
                0x0000000000098816                rib_add_ipv6
                0x0000000000098ad4                rib_add_ipv6_multipath
                0x0000000000098cc0                rib_delete_ipv6
                0x00000000000990dc                static_add_ipv6
                0x0000000000099358                static_delete_ipv6
                0x0000000000099508                rib_update
                0x00000000000996c8                rib_weed_tables
                0x0000000000099712                rib_sweep_route
                0x0000000000099812                rib_score_proto
                0x000000000009987a                rib_close_table
                0x0000000000099984                rib_close
                0x00000000000999ce                rib_init
                0x0000000000099a5a                rib_tables_iter_next
                0x0000000000099b90                nsm_vrf_lookup
                0x0000000000099c44                nsm_vrf_alloc
                0x0000000000099d2e                nsm_vrf_table
                0x0000000000099d7e                nsm_vrf_static_table
 .text          0x0000000000099dd0      0x6ac /home/zhurish/workspace/working/zpl-source/source/debug/lib/librtpl.a(router-id.o)
                0x0000000000099e90                router_id_get
                0x0000000000099fe4                router_id_set
                0x000000000009a0c4                router_id_add_address
                0x000000000009a244                router_id_del_address
                0x000000000009a3f4                router_id_init
 .text          0x000000000009a47c      0xe74 /home/zhurish/workspace/working/zpl-source/source/debug/lib/librtpl.a(nsm_redistribute.o)
                0x000000000009a496                zebra_check_addr
                0x000000000009a566                is_default
                0x000000000009a8b8                redistribute_add
                0x000000000009aa1c                redistribute_delete
                0x000000000009ab18                zebra_redistribute_add
                0x000000000009ab94                zebra_redistribute_delete
                0x000000000009abe2                zebra_redistribute_default_add
                0x000000000009ac18                zebra_redistribute_default_delete
                0x000000000009ac44                zebra_interface_up_update
                0x000000000009ad14                zebra_interface_down_update
                0x000000000009addc                zebra_interface_add_update
                0x000000000009aeb8                zebra_interface_delete_update
                0x000000000009af94                zebra_interface_address_add_update
                0x000000000009b0b8                zebra_interface_address_delete_update
                0x000000000009b1dc                zebra_interface_mode_update
                0x000000000009b2b0                zebra_write_config_cb
                0x000000000009b2c4                zebra_debug_write_config_cb
                0x000000000009b2d8                zebra_interface_write_config_cb
 .text          0x000000000009b2f0     0x2d18 /home/zhurish/workspace/working/zpl-source/source/debug/lib/librtpl.a(nsm_zserv.o)
                0x000000000009b428                zebra_server_send_message
                0x000000000009b5b4                zserv_create_header
                0x000000000009b6f4                zsend_interface_add
                0x000000000009b764                zsend_interface_delete
                0x000000000009b7d4                zsend_interface_address
                0x000000000009b8ca                zsend_interface_state
                0x000000000009b954                zsend_interface_mode
                0x000000000009b9b8                zsend_route_multipath
                0x000000000009c384                zsend_router_id_update
                0x000000000009dfcc                zebra_init
                0x000000000009dff0                zserv_init
 .text          0x000000000009e008     0x1390 /home/zhurish/workspace/working/zpl-source/source/debug/lib/librtpl.a(nsm_rnh.o)
                0x000000000009e020                rnh_str
                0x000000000009e046                zebra_add_rnh
                0x000000000009e178                zebra_lookup_rnh
                0x000000000009e1ec                zebra_delete_rnh
                0x000000000009e2b4                zebra_add_rnh_client
                0x000000000009e374                zebra_remove_rnh_client
                0x000000000009e42c                zebra_evaluate_rnh_table
                0x000000000009e71c                zebra_dispatch_rnh_table
                0x000000000009e870                zebra_print_rnh_table
                0x000000000009e90c                zebra_cleanup_rnh_client
 .text          0x000000000009f398      0x1b0 /home/zhurish/workspace/working/zpl-source/source/debug/lib/libsdk.a(sdk_driver.o)
                0x000000000009f398                is_multicast_ether_addr
                0x000000000009f3be                ether_addr_to_u64
                0x000000000009f422                u64_to_ether_addr
                0x000000000009f48e                sdk_driver_init
                0x000000000009f4ba                sdk_driver_start
                0x000000000009f510                sdk_driver_stop
                0x000000000009f528                sdk_driver_exit
 .text          0x000000000009f548      0xd04 /home/zhurish/workspace/working/zpl-source/source/debug/lib/libsdk.a(b53_mac_tbl.o)
                0x00000000000a010c                b53125_mac_address_add
                0x00000000000a0158                b53125_mac_address_del
                0x00000000000a0208                b53125_mac_address_read
 .text          0x00000000000a024c      0x728 /home/zhurish/workspace/working/zpl-source/source/debug/lib/libsdk.a(b53_driver.o)
                0x00000000000a02d6                b53125_device_probe
                0x00000000000a062c                b53125_config_init
 .text          0x00000000000a0974      0x5b4 /home/zhurish/workspace/working/zpl-source/source/debug/lib/libsdk.a(b53_mdio.o)
                0x00000000000a0974                __mdio_read
                0x00000000000a0f04                b53125_mdio_probe
 .text          0x00000000000a0f28     0x18c8 /home/zhurish/workspace/working/zpl-source/source/debug/lib/libsdk.a(b53_global.o)
                0x00000000000a104c                b53_brcm_hdr_setup
                0x00000000000a11f0                b53125_switch_manege
                0x00000000000a12a8                b53125_switch_forwarding
                0x00000000000a1388                b53125_multicast_flood
                0x00000000000a1440                b53125_unicast_flood
                0x00000000000a14f4                b53125_range_error
                0x00000000000a15a8                b53125_multicast_learning
                0x00000000000a1660                b53125_enable_bpdu
                0x00000000000a1710                b53125_aging_time
                0x00000000000a1790                b53125_port_wan_enable
                0x00000000000a185c                b53125_multicast_forward
                0x00000000000a1bc8                b53125_mldqry_snoop_enable
                0x00000000000a1bfc                b53125_mldqry_proxy_enable
                0x00000000000a1e0c                b53125_mld_snoop_enable
                0x00000000000a1e40                b53125_mld_proxy_enable
                0x00000000000a2050                b53125_igmpunknow_snoop_enable
                0x00000000000a2084                b53125_igmpunknow_proxy_enable
                0x00000000000a2294                b53125_igmpqry_snoop_enable
                0x00000000000a22c8                b53125_igmpqry_proxy_enable
                0x00000000000a24d8                b53125_igmp_snoop_enable
                0x00000000000a250c                b53125_igmp_proxy_enable
                0x00000000000a2540                b53125_igmp_ipcheck_enable
                0x00000000000a25ec                b53125_arp_copycpu_enable
                0x00000000000a2698                b53125_rarp_copycpu_enable
                0x00000000000a2744                b53125_dhcp_copycpu_enable
 .text          0x00000000000a27f0      0xf4c /home/zhurish/workspace/working/zpl-source/source/debug/lib/libsdk.a(b53_dos.o)
                0x00000000000a32c8                b53125_dos_disable_lean
                0x00000000000a36dc                b53125_dos_init
 .text          0x00000000000a373c      0x714 /home/zhurish/workspace/working/zpl-source/source/debug/lib/libsdk.a(b53_mirror.o)
                0x00000000000a3e0a                b53125_mirror_init
 .text          0x00000000000a3e50     0x138c /home/zhurish/workspace/working/zpl-source/source/debug/lib/libsdk.a(b53_port.o)
                0x00000000000a445c                b53125_pasue_transmit_enable
                0x00000000000a456c                b53125_pasue_receive_enable
                0x00000000000a4680                b53125_unknow_unicast_forward_port
                0x00000000000a4774                b53125_unknow_multicast_forward_port
                0x00000000000a4868                b53125_unknow_ipmulticast_forward_port
                0x00000000000a4960                b53125_enable_learning
                0x00000000000a4f94                b53125_jumbo_enable
                0x00000000000a5084                b53125_jumbo_size
                0x00000000000a5104                b53125_port_init
 .text          0x00000000000a51dc      0x4a8 /home/zhurish/workspace/working/zpl-source/source/debug/lib/libsdk.a(b53_stp.o)
                0x00000000000a5604                b53125_mstp_init
 .text          0x00000000000a5684      0x4bc /home/zhurish/workspace/working/zpl-source/source/debug/lib/libsdk.a(b53_trunk.o)
                0x00000000000a5adc                b53_trunk_init
 .text          0x00000000000a5b40      0xe88 /home/zhurish/workspace/working/zpl-source/source/debug/lib/libsdk.a(b53_vlan.o)
                0x00000000000a5f18                b53125_vlan_mstp_id
                0x00000000000a64b0                b53125_port_vlan
                0x00000000000a68e0                b53_vlan_init
 .text          0x00000000000a69c8      0xe14 /home/zhurish/workspace/working/zpl-source/source/debug/lib/libsdk.a(b53_qos.o)
                0x00000000000a6bac                b53125_qos_aggreation_mode
                0x00000000000a6c5c                b53125_qos_base_port
                0x00000000000a6d0c                b53125_qos_layer_sel
                0x00000000000a6db8                b53125_qos_8021p
                0x00000000000a6e84                b53125_qos_diffserv
                0x00000000000a6f50                b53125_8021p_map_priority
                0x00000000000a7024                b53125_diffserv_map_priority
                0x00000000000a7148                b53125_tc_map_queue
                0x00000000000a7210                b53125_qos_cpu_map_queue
                0x00000000000a72c0                b53125_queue_scheduling
                0x00000000000a736c                b53125_queue_weight
                0x00000000000a73fc                b53125_qos_class4_weight
                0x00000000000a74c4                b53125_qos_cfi_remarking
                0x00000000000a7584                b53125_qos_pcp_remarking
                0x00000000000a763c                b53125_priority_remarking
                0x00000000000a7730                b53125_qos_init
 .text          0x00000000000a77dc      0x860 /home/zhurish/workspace/working/zpl-source/source/debug/lib/libsdk.a(b53_rate.o)
                0x00000000000a7b8c                b53125_qos_cpu_rate
                0x00000000000a7c14                b53125_rate_default
                0x00000000000a7e7c                b53125_strom_rate
                0x00000000000a7ebc                b53125_ingress_rate
                0x00000000000a7fa0                b53125_egress_rate
 .text          0x00000000000a803c      0x570 /home/zhurish/workspace/working/zpl-source/source/debug/lib/libsdk.a(b53_eap.o)
                0x00000000000a8558                b53125_eap_init
 .text          0x00000000000a85ac      0x1e4 /home/zhurish/workspace/working/zpl-source/source/debug/lib/libsdk.a(b53_phy.o)
                0x00000000000a8610                b53125_phy_loopback
                0x00000000000a86d0                b53125_phy_powerdown
 .text          0x00000000000a8790      0x3d4 /home/zhurish/workspace/working/zpl-source/source/debug/lib/libsdk.a(b53_cpu.o)
                0x00000000000a87f4                b53125_imp_port_enable
                0x00000000000a8898                b53125_imp_enable
                0x00000000000a891c                b53125_imp_speed
                0x00000000000a89e8                b53125_imp_duplex
                0x00000000000a8a94                b53125_imp_flow
 .text          0x00000000000a8b64     0x1df8 /home/zhurish/workspace/working/zpl-source/source/debug/lib/libshell.a(vty_user.o)
                0x00000000000a8b64                vty_user_setting
                0x00000000000a8e30                md5_encrypt_empty
                0x00000000000a90ce                md5_encrypt_password
                0x00000000000a91c8                vty_user_encrypt_enable
                0x00000000000a9388                vty_user_enable_password
                0x00000000000a9484                vty_user_getting_privilege
                0x00000000000a955c                vty_user_setting_privilege
                0x00000000000a9680                vty_user_getting_authen_type
                0x00000000000a97c8                vty_user_setting_authen_type
                0x00000000000a98ec                vty_user_authentication
                0x00000000000a9aa8                user_authentication
                0x00000000000a9bb0                vty_user_authorization
                0x00000000000a9bc8                vty_user_accounting_start
                0x00000000000a9bde                vty_user_accounting_stop
                0x00000000000a9bf4                config_write_vty_user
                0x00000000000a9e78                vty_user_create
                0x00000000000aa35c                vty_user_delete
                0x00000000000aa660                vty_user_change
                0x00000000000aa768                vty_user_foreach
                0x00000000000aa844                vty_user_get
                0x00000000000aa870                vty_user_init
 .text          0x00000000000aa95c     0x6cc8 /home/zhurish/workspace/working/zpl-source/source/debug/lib/libshell.a(vty.o)
                0x00000000000aaa28                vty_out
                0x00000000000aac7c                vty_sync_out
                0x00000000000ab448                vty_time_print
                0x00000000000ab4f4                vty_hello
                0x00000000000ab6c0                vty_prompt
                0x00000000000ab8a0                vty_new
                0x00000000000ab908                vty_free
                0x00000000000aba78                vty_command
                0x00000000000ac11a                vty_self_insert
                0x00000000000ad3ac                vty_execute
                0x00000000000ad7fa                vty_getc_input
                0x00000000000ad8dc                vty_read_handle
                0x00000000000ae1a6                vty_new_init
                0x00000000000ae3e8                vty_write_hello
                0x00000000000aead8                vty_console_init
                0x00000000000aebb4                vty_tty_init
                0x00000000000afcc8                vty_sshd_init
                0x00000000000afd2c                vty_serv_init
                0x00000000000afd62                vty_close
                0x00000000000b0298                vty_load_config
                0x00000000000b03e0                vty_log
                0x00000000000b0484                vty_log_debug
                0x00000000000b0528                vty_trap_log
                0x00000000000b067c                vty_log_fixed
                0x00000000000b0720                vty_config_lock
                0x00000000000b076c                vty_config_unlock
                0x00000000000b0d38                vty_exec_timeout
                0x00000000000b0ddc                vty_reset
                0x00000000000b0fb4                vty_cancel
                0x00000000000b10d8                vty_resume
                0x00000000000b110e                vty_lookup
                0x00000000000b1240                vty_get_cwd
                0x00000000000b1264                vty_shell
                0x00000000000b1286                vty_shell_serv
                0x00000000000b12a8                vty_ansync_enable
                0x00000000000b12ca                vty_login_type
                0x00000000000b12e2                vty_init_vtysh
                0x00000000000b1304                vty_thread_master
                0x00000000000b1324                vty_init
                0x00000000000b13bc                vty_terminate
                0x00000000000b143c                vty_execute_shell
                0x00000000000b160c                vty_task_init
                0x00000000000b1618                vty_task_exit
 .text          0x00000000000b1624      0x704 /home/zhurish/workspace/working/zpl-source/source/debug/lib/libstartup.a(os_start.o)
                0x00000000000b1aa4                os_base_env_init
                0x00000000000b1aba                os_base_env_load
                0x00000000000b1ac8                os_base_signal_init
                0x00000000000b1b3a                os_base_stack_init
                0x00000000000b1bd0                os_base_zlog_open
                0x00000000000b1bee                os_base_shell_start
                0x00000000000b1c64                os_base_start_pid
                0x00000000000b1ccc                os_base_module_start_all
                0x00000000000b1d14                os_base_module_exit_all
 .text          0x00000000000b1d28       0xcc /home/zhurish/workspace/working/zpl-source/source/debug/lib/libstartup.a(os_module.o)
                0x00000000000b1d28                os_module_init
                0x00000000000b1d52                os_module_exit
                0x00000000000b1d60                os_module_task_init
                0x00000000000b1d86                os_module_task_exit
                0x00000000000b1da0                os_module_cmd_init
                0x00000000000b1dbc                os_module_cmd_exit
 .text          0x00000000000b1df4      0x4c8 /home/zhurish/workspace/working/zpl-source/source/debug/lib/libstartup.a(os_test.o)
                0x00000000000b21f6                os_test
 .text          0x00000000000b22bc     0x234c /home/zhurish/workspace/working/zpl-source/source/debug/lib/libuci.a(os_uci.o)
                0x00000000000b36c8                os_uci_get_errno
                0x00000000000b36e0                os_uci_set_string
                0x00000000000b37bc                os_uci_set_integer
                0x00000000000b3890                os_uci_set_float
                0x00000000000b399c                os_uci_set_double
                0x00000000000b3aa0                os_uci_get_string
                0x00000000000b3ba4                os_uci_get_address
                0x00000000000b3cc4                os_uci_get_integer
                0x00000000000b3dc4                os_uci_get_float
                0x00000000000b3ed8                os_uci_get_double
                0x00000000000b3fe8                os_uci_get_list
                0x00000000000b415c                os_uci_list_add
                0x00000000000b4238                os_uci_list_del
                0x00000000000b4314                os_uci_del
                0x00000000000b449c                os_uci_section_add
                0x00000000000b44b6                os_uci_commit
                0x00000000000b457c                os_uci_save_config
                0x00000000000b4594                os_uci_init
 .text          0x00000000000b4608     0x1394 /home/zhurish/workspace/working/zpl-source/source/debug/lib/libuci.a(delta.o)
                0x00000000000b46c2                uci_add_delta
                0x00000000000b4752                uci_free_delta
                0x00000000000b48a0                uci_set_savedir
                0x00000000000b49d4                uci_add_delta_path
                0x00000000000b4fba                uci_load_delta
                0x00000000000b54c0                uci_revert
                0x00000000000b56ea                uci_save
 .text          0x00000000000b599c     0x1a60 /home/zhurish/workspace/working/zpl-source/source/debug/lib/libuci.a(file.o)
                0x00000000000b5a24                uci_getln
                0x00000000000b5f50                uci_parse_argument
                0x00000000000b6940                uci_export
                0x00000000000b6a02                uci_import
 .text          0x00000000000b73fc      0x5bc /home/zhurish/workspace/working/zpl-source/source/debug/lib/libuci.a(util.o)
                0x00000000000b7434                uci_malloc
                0x00000000000b746e                uci_realloc
                0x00000000000b74a0                uci_strdup
                0x00000000000b74d0                uci_validate_str
                0x00000000000b7556                uci_validate_text
                0x00000000000b75a2                uci_alloc_parse_context
                0x00000000000b75c0                uci_parse_ptr
                0x00000000000b77d0                uci_parse_error
                0x00000000000b77fa                uci_open_stream
                0x00000000000b7984                uci_close_stream
 .text          0x00000000000b79b8     0x2074 /home/zhurish/workspace/working/zpl-source/source/debug/lib/libuci.a(libuci.o)
                0x00000000000b7b00                uci_alloc_generic
                0x00000000000b7c12                uci_free_element
                0x00000000000b7f5e                uci_alloc_package
                0x00000000000b7fa4                uci_free_package
                0x00000000000b8090                uci_lookup_list
                0x00000000000b8286                uci_lookup_next
                0x00000000000b8322                uci_lookup_ptr
                0x00000000000b8506                uci_expand_ptr
                0x00000000000b866a                uci_rename
                0x00000000000b879e                uci_reorder_section
                0x00000000000b88b0                uci_add_section
                0x00000000000b89b6                uci_delete
                0x00000000000b8b88                uci_add_list
                0x00000000000b8ce4                uci_del_list
                0x00000000000b8e4a                uci_set
                0x00000000000b9142                uci_unload
                0x00000000000b91d2                uci_alloc_context
                0x00000000000b927c                uci_free_context
                0x00000000000b93c8                uci_set_confdir
                0x00000000000b9480                uci_cleanup
                0x00000000000b94f4                uci_perror
                0x00000000000b9510                uci_get_errorstr
                0x00000000000b9744                uci_list_configs
                0x00000000000b97fa                uci_commit
                0x00000000000b98ca                uci_load
                0x00000000000b997c                uci_set_backend
 .text          0x00000000000b9a2c     0x11dc /home/zhurish/workspace/working/zpl-source/source/debug/lib/libbase.a(md5.o)
                0x00000000000b9a2c                os_md5_init
                0x00000000000b9a8e                os_md5_loop
                0x00000000000b9b5c                os_md5_pad
                0x00000000000b9c00                os_md5_result
                0x00000000000ba9d8                OS_MD5_Init
                0x00000000000ba9ee                OS_MD5_Update
                0x00000000000baa0c                OS_MD5_Final
                0x00000000000baa2c                os_hmac_md5
 .text          0x00000000000bac08      0xf88 /home/zhurish/workspace/working/zpl-source/source/debug/lib/libbase.a(sockunion.o)
                0x00000000000bac08                inet_sutop
                0x00000000000bac4c                str2sockunion
                0x00000000000bacac                sockunion2str
                0x00000000000bad24                sockunion_str2su
                0x00000000000badfc                sockunion_socket
                0x00000000000bae84                sockunion_accept
                0x00000000000baf5c                sockunion_connect
                0x00000000000bb058                sockunion_stream_socket
                0x00000000000bb0cc                sockunion_bind
                0x00000000000bb19c                sockopt_reuseaddr
                0x00000000000bb210                sockopt_reuseport
                0x00000000000bb284                sockopt_int
                0x00000000000bb30e                sockopt_broadcast
                0x00000000000bb330                sockopt_keepalive
                0x00000000000bb352                sockopt_bindtodevice
                0x00000000000bb3e8                sockopt_ttl
                0x00000000000bb4d0                sockopt_cork
                0x00000000000bb500                sockopt_minttl
                0x00000000000bb59c                sockopt_v6only
                0x00000000000bb61c                sockunion_same
                0x00000000000bb686                sockunion_hash
                0x00000000000bb6c8                family2addrsize
                0x00000000000bb6f4                sockunion_get_addrlen
                0x00000000000bb712                sockunion_get_addr
                0x00000000000bb742                sockunion_get_port
                0x00000000000bb77e                sockunion_set
                0x00000000000bb7dc                sockunion_getsockname
                0x00000000000bb8c8                sockunion_getpeername
                0x00000000000bbaac                sockunion_cmp
                0x00000000000bbb4e                sockunion_dup
                0x00000000000bbb74                sockunion_free
 .text          0x00000000000bbb90      0x13c /home/zhurish/workspace/working/zpl-source/source/debug/lib/libbase.a(pid_output.o)
                0x00000000000bbb90                pid_output
                0x00000000000bbc2c                pid_input
 .text          0x00000000000bbccc      0xa28 /home/zhurish/workspace/working/zpl-source/source/debug/lib/libbase.a(buffer.o)
                0x00000000000bbccc                buffer_new
                0x00000000000bbd38                buffer_free
                0x00000000000bbd5a                buffer_getstr
                0x00000000000bbdf8                buffer_empty
                0x00000000000bbe1a                buffer_reset
                0x00000000000bbeb0                buffer_put
                0x00000000000bbf36                buffer_dataptr
                0x00000000000bbf66                buffer_putemptyeize
                0x00000000000bbfc8                buffer_putc
                0x00000000000bbfe8                buffer_putstr
                0x00000000000bc00c                buffer_size
                0x00000000000bc04e                buffer_flush_all
                0x00000000000bc0c4                buffer_flush_window
                0x00000000000bc4a0                buffer_flush_available
                0x00000000000bc610                buffer_write
 .text          0x00000000000bc6f4      0x888 /home/zhurish/workspace/working/zpl-source/source/debug/lib/libbase.a(template.o)
                0x00000000000bc6f4                nsm_template_new
                0x00000000000bc720                nsm_template_free
                0x00000000000bc76c                nsm_template_install
                0x00000000000bc7ac                nsm_template_lookup
                0x00000000000bc880                nsm_template_lookup_name
                0x00000000000bc95c                nsm_template_init
                0x00000000000bc9c0                nsm_template_exit
                0x00000000000bca04                nsm_template_write_config
                0x00000000000bcadc                nsm_template_show_config
                0x00000000000bcbb8                nsm_template_service_write_config
                0x00000000000bcc90                nsm_template_service_show_config
                0x00000000000bcd6c                nsm_template_debug_show_config
                0x00000000000bce48                nsm_template_debug_write_config
                0x00000000000bcf20                cmd_nsm_template_init
 .text          0x00000000000bcf7c     0x4718 /home/zhurish/workspace/working/zpl-source/source/debug/lib/libbase.a(stream.o)
                0x00000000000bcf7c                stream_new
                0x00000000000bd020                stream_free
                0x00000000000bd062                stream_copy
                0x00000000000bd18c                stream_dup
                0x00000000000bd260                stream_dupcat
                0x00000000000bd434                stream_resize
                0x00000000000bd5e4                stream_get_getp
                0x00000000000bd69c                stream_get_endp
                0x00000000000bd754                stream_get_size
                0x00000000000bd80c                stream_set_getp
                0x00000000000bd960                stream_set_endp
                0x00000000000bdbec                stream_forward_getp
                0x00000000000bdd58                stream_forward_endp
                0x00000000000bdec4                stream_get
                0x00000000000be044                stream_getc
                0x00000000000be1b4                stream_getc_from
                0x00000000000be31c                stream_getw
                0x00000000000be4ac                stream_getw_from
                0x00000000000be630                stream_getl_from
                0x00000000000be7e0                stream_getl
                0x00000000000be9a4                stream_getq_from
                0x00000000000bec9c                stream_getq
                0x00000000000befb0                stream_get_ipv4
                0x00000000000bf124                stream_getf
                0x00000000000bf146                stream_getd
                0x00000000000bf16e                stream_put
                0x00000000000bf388                stream_putc
                0x00000000000bf4fc                stream_putw
                0x00000000000bf68c                stream_putl
                0x00000000000bf848                stream_putq
                0x00000000000bfac4                stream_putf
                0x00000000000bfae8                stream_putd
                0x00000000000bfb14                stream_putc_at
                0x00000000000bfc80                stream_putw_at
                0x00000000000bfe04                stream_putl_at
                0x00000000000bffa8                stream_putq_at
                0x00000000000c01f4                stream_put_ipv4
                0x00000000000c036c                stream_put_in_addr
                0x00000000000c04e4                stream_put_prefix
                0x00000000000c0694                stream_read
                0x00000000000c0824                stream_read_try
                0x00000000000c0a30                stream_recvfrom
                0x00000000000c0c48                stream_recvmsg
                0x00000000000c0e14                stream_writefd
                0x00000000000c0e46                stream_write_try
                0x00000000000c0e76                stream_sendto
                0x00000000000c0eb4                stream_sendmsg
                0x00000000000c0ef8                stream_write
                0x00000000000c10f8                stream_pnt
                0x00000000000c11bc                stream_empty
                0x00000000000c1284                stream_reset
                0x00000000000c1358                stream_discard
                0x00000000000c1474                stream_flush
                0x00000000000c1558                stream_fifo_new
                0x00000000000c1572                stream_fifo_push
                0x00000000000c15b0                stream_fifo_pop
                0x00000000000c15fe                stream_fifo_head
                0x00000000000c1616                stream_fifo_clean
                0x00000000000c1670                stream_fifo_free
 .text          0x00000000000c1694      0x2b8 /home/zhurish/workspace/working/zpl-source/source/debug/lib/libbase.a(nexthop.o)
                0x00000000000c1694                nexthop_same_no_recurse
                0x00000000000c178c                nexthop_type_to_str
                0x00000000000c17c0                nexthop_new
                0x00000000000c17d2                nexthop_add
                0x00000000000c181e                copy_nexthops
                0x00000000000c18c6                nexthop_free
                0x00000000000c191e                nexthops_free
 .text          0x00000000000c194c      0xdcc /home/zhurish/workspace/working/zpl-source/source/debug/lib/libbase.a(table.o)
                0x00000000000c194c                route_table_init_with_delegate
                0x00000000000c196e                route_table_finish
                0x00000000000c1c30                route_lock_node
                0x00000000000c1c54                route_unlock_node
                0x00000000000c1cac                route_node_match
                0x00000000000c1d3c                route_node_match_ipv4
                0x00000000000c1d7a                route_node_match_ipv6
                0x00000000000c1de8                route_node_lookup
                0x00000000000c1e6e                route_node_get
                0x00000000000c20a0                route_top
                0x00000000000c20ca                route_next
                0x00000000000c2178                route_next_until
                0x00000000000c2230                route_table_count
                0x00000000000c2286                route_table_init
                0x00000000000c22a0                route_table_prefix_iter_cmp
                0x00000000000c2578                route_table_get_next
                0x00000000000c25d4                route_table_iter_init
                0x00000000000c2608                route_table_iter_pause
                0x00000000000c26a4                route_table_iter_cleanup
 .text          0x00000000000c2718      0x8f4 /home/zhurish/workspace/working/zpl-source/source/debug/lib/libbase.a(connected.o)
                0x00000000000c2718                connected_lookup
                0x00000000000c2734                connected_same
                0x00000000000c27ca                connected_up_ipv4
                0x00000000000c289a                connected_down_ipv4
                0x00000000000c293a                connected_up_ipv6
                0x00000000000c29e8                connected_down_ipv6
                0x00000000000c2ab4                connected_add_ipv4
                0x00000000000c2d28                connected_delete_ipv4
                0x00000000000c2db8                connected_add_ipv6
                0x00000000000c2f4c                connected_delete_ipv6
 .text          0x00000000000c300c     0x30ac /home/zhurish/workspace/working/zpl-source/source/debug/lib/libbase.a(if.o)
                0x00000000000c300c                if_data_lock
                0x00000000000c3038                if_data_unlock
                0x00000000000c3060                if_list_get
                0x00000000000c3078                if_hook_add
                0x00000000000c30b0                if_new_llc_type_mode
                0x00000000000c30e8                if_cmp_func
                0x00000000000c3306                if_make_llc_type
                0x00000000000c3548                if_create_vrf_dynamic
                0x00000000000c3764                if_create_vrf
                0x00000000000c3954                if_create
                0x00000000000c3972                if_create_dynamic
                0x00000000000c3990                if_delete
                0x00000000000c39f8                if_lookup_by_index_vrf
                0x00000000000c3aa8                if_lookup_by_index
                0x00000000000c3b48                if_lookup_by_kernel_name_vrf
                0x00000000000c3c00                if_lookup_by_kernel_name
                0x00000000000c3ca8                if_lookup_by_kernel_index_vrf
                0x00000000000c3d5c                if_lookup_by_kernel_index
                0x00000000000c3e00                ifkernelindex2kernelifname
                0x00000000000c3e2a                ifkernelindex2kernelifname_vrf
                0x00000000000c3e5c                ifname2kernelifindex
                0x00000000000c3e88                ifname2kernelifindex_vrf
                0x00000000000c3ebc                ifindex2ifkernel
                0x00000000000c3ee8                ifkernel2ifindex
                0x00000000000c3f12                ifindex2ifname_vrf
                0x00000000000c3f48                ifindex2ifname
                0x00000000000c3f78                ifname2ifindex_vrf
                0x00000000000c3faa                ifname2ifindex
                0x00000000000c3fd4                if_lookup_by_name_vrf
                0x00000000000c4088                if_lookup_by_name
                0x00000000000c412c                if_lookup_by_name_len_vrf
                0x00000000000c41e8                if_lookup_by_name_len
                0x00000000000c4202                if_ifindex2vlan
                0x00000000000c422a                if_vlan2ifindex
                0x00000000000c42d4                if_ifindex2phy
                0x00000000000c42fe                if_phy2ifindex
                0x00000000000c43a4                if_ifindex2l3intfid
                0x00000000000c43ce                if_l3intfid2ifindex
                0x00000000000c4474                if_update_phyid
                0x00000000000c449e                if_update_phyid2
                0x00000000000c44be                if_update_l3intfid
                0x00000000000c44e8                if_update_l3intfid2
                0x00000000000c4508                if_ifindex2vrfid
                0x00000000000c4530                if_lookup_by_encavlan
                0x00000000000c45d8                if_lookup_exact_address_vrf
                0x00000000000c4714                if_lookup_exact_address
                0x00000000000c472e                if_lookup_address_vrf
                0x00000000000c48d0                if_lookup_address
                0x00000000000c48ea                if_lookup_prefix_vrf
                0x00000000000c4a0c                if_lookup_prefix
                0x00000000000c4a26                if_count_lookup_type
                0x00000000000c4ac8                if_up
                0x00000000000c4bac                if_down
                0x00000000000c4c90                if_is_up
                0x00000000000c4cc4                if_is_running
                0x00000000000c4cf8                if_is_operative
                0x00000000000c4d5c                if_is_loopback
                0x00000000000c4d90                if_is_broadcast
                0x00000000000c4dc4                if_is_pointopoint
                0x00000000000c4df8                if_is_multicast
                0x00000000000c4e2c                if_is_serial
                0x00000000000c4e68                if_is_ethernet
                0x00000000000c4eb0                if_is_tunnel
                0x00000000000c4eec                if_is_lag
                0x00000000000c4f28                if_is_lag_member
                0x00000000000c4f50                if_is_vlan
                0x00000000000c4f8c                if_is_brigde
                0x00000000000c4fb0                if_is_brigde_member
                0x00000000000c4fd8                if_is_loop
                0x00000000000c4ffc                if_is_wireless
                0x00000000000c5038                if_is_online
                0x00000000000c505c                if_is_l3intf
                0x00000000000c5080                if_have_kernel
                0x00000000000c509a                if_online
                0x00000000000c50bc                if_name_set
                0x00000000000c50f2                if_kname_set
                0x00000000000c51b0                if_enca_string
                0x00000000000c5294                if_list_each
                0x00000000000c533c                connected_new
                0x00000000000c534e                connected_free
                0x00000000000c53f2                connected_delete_by_prefix
                0x00000000000c5490                connected_lookup_address
                0x00000000000c55a4                connected_add_by_prefix
                0x00000000000c560e                connected_check
                0x00000000000c5854                if_flag_dump
                0x00000000000c5cf0                if_dump_all
                0x00000000000c5d7c                if_init
                0x00000000000c5ddc                if_terminate
                0x00000000000c5e30                if_link_type_str
                0x00000000000c5fe4                netlink_to_if_link_type
 .text          0x00000000000c60b8      0xa34 /home/zhurish/workspace/working/zpl-source/source/debug/lib/libbase.a(nsm_vrf.o)
                0x00000000000c60b8                vrf_bitmap_init
                0x00000000000c60ca                vrf_bitmap_free
                0x00000000000c6142                vrf_bitmap_set
                0x00000000000c61f4                vrf_bitmap_unset
                0x00000000000c6298                vrf_bitmap_check
                0x00000000000c6504                vrf_lookup
                0x00000000000c6554                vrf_lookup_by_name
                0x00000000000c65b4                vrf_vrfid2name
                0x00000000000c65e0                vrf_name2vrfid
                0x00000000000c66d8                vrf_add_hook
                0x00000000000c6750                vrf_first
                0x00000000000c6770                vrf_next
                0x00000000000c678e                vrf_iterator
                0x00000000000c67ac                vrf_iter2id
                0x00000000000c67d4                vrf_iter2info
                0x00000000000c6806                vrf_info_lookup
                0x00000000000c685c                nsm_vrf_create
                0x00000000000c6878                nsm_vrf_delete
                0x00000000000c68c4                nsm_vrf_set_vrfid
                0x00000000000c6a4c                nsm_vrf_init
                0x00000000000c6a88                vrf_terminate
 .text          0x00000000000c6aec     0x1254 /home/zhurish/workspace/working/zpl-source/source/debug/lib/libbase.a(if_name.o)
                0x00000000000c6aec                getkernelname
                0x00000000000c6b5c                getabstractname
                0x00000000000c6bcc                getifpname
                0x00000000000c6c3c                kernelname2type
                0x00000000000c6cb4                abstractname2type
                0x00000000000c6d28                name2type
                0x00000000000c6da0                if_name_hash_make
                0x00000000000c6f50                if_ifname_format
                0x00000000000c6f6c                if_uspv2ifindex
                0x00000000000c702e                if_uspv2ifname
                0x00000000000c7060                if_ifname_split
                0x00000000000c7178                if_ifindex_make
                0x00000000000c7438                if_ifname_make
                0x00000000000c7452                if_ifname_abstract_make
                0x00000000000c746c                if_ifname_alias_make
                0x00000000000c7486                if_iftype_make
                0x00000000000c74d4                if_mac_out_format
                0x00000000000c754c                if_uspv_type_setting
                0x00000000000c7a0c                vty_iusp_get
                0x00000000000c7b26                vty_mac_get
                0x00000000000c7c98                if_loopback_ifindex_create
 .text          0x00000000000c7d40      0x5ec /home/zhurish/workspace/working/zpl-source/source/debug/lib/libbase.a(nsm_event.o)
                0x00000000000c8108                nsm_event_register_api
                0x00000000000c8158                nsm_event_init
                0x00000000000c81a8                nsm_event_exit
                0x00000000000c81d4                nsm_event_loop_start
                0x00000000000c81f8                nsm_event_loop_stop
                0x00000000000c8284                nsm_event_post_data_api
                0x00000000000c82e0                nsm_event_post_api
 .text          0x00000000000c832c     0x1af4 /home/zhurish/workspace/working/zpl-source/source/debug/lib/libbase.a(keychain.o)
                0x00000000000c8388                keychain_lookup
                0x00000000000c85e0                key_lookup_for_accept
                0x00000000000c86a0                key_match_for_accept
                0x00000000000c8764                key_lookup_for_send
                0x00000000000c9bec                keychain_init
 .text          0x00000000000c9e20     0x70cc /home/zhurish/workspace/working/zpl-source/source/debug/lib/libbase.a(filter.o)
                0x00000000000c9e96                filter_type_str
                0x00000000000c9ee0                filter_match_cisco
                0x00000000000c9f76                filter_match_zebra
                0x00000000000c9fce                filter_match_zebos_ext
                0x00000000000ca064                filter_match_mac
                0x00000000000ca38e                access_list_lookup
                0x00000000000ca412                access_list_reference
                0x00000000000ca492                access_list_apply
                0x00000000000ca550                access_list_add_hook
                0x00000000000ca59c                access_list_delete_hook
                0x00000000000ca760                filter_compare_cisco
                0x00000000000ca848                filter_compare_zebra
                0x00000000000ca8d4                filter_compare_zebos_extended
                0x00000000000ca9b8                filter_compare_l2mac
                0x00000000000caadc                filter_cisco_format
                0x00000000000cb83c                filter_zebra_format
                0x00000000000cbffe                filter_zebos_ext_format
                0x00000000000cd394                filter_l2mac_format
                0x00000000000cf174                access_list_write_config_cisco
                0x00000000000cf398                access_list_write_config_zebra
                0x00000000000cf630                access_list_write_config_zebos_ext
                0x00000000000cf9a8                access_list_write_config_mac
                0x00000000000d0ec4                access_list_init
                0x00000000000d0ed8                access_list_reset
 .text          0x00000000000d0eec     0x42e4 /home/zhurish/workspace/working/zpl-source/source/debug/lib/libbase.a(plist.o)
                0x00000000000d0f44                prefix_list_name
                0x00000000000d0fe4                prefix_list_lookup
                0x00000000000d1002                prefix_bgp_orf_lookup
                0x00000000000d13d2                prefix_list_add_hook
                0x00000000000d1404                prefix_list_delete_hook
                0x00000000000d179c                prefix_list_apply
                0x00000000000d4610                prefix_bgp_orf_entry
                0x00000000000d46ae                prefix_bgp_orf_set
                0x00000000000d47ea                prefix_bgp_orf_remove_all
                0x00000000000d4812                prefix_bgp_show_prefix_list
                0x00000000000d5198                prefix_list_init
                0x00000000000d51a8                prefix_list_reset
 .text          0x00000000000d51d0     0x1d2c /home/zhurish/workspace/working/zpl-source/source/debug/lib/libbase.a(cmd_log.o)
                0x00000000000d6b84                cmd_log_init
 .text          0x00000000000d6efc      0x2e0 /home/zhurish/workspace/working/zpl-source/source/debug/lib/libbase.a(cmd_memory.o)
                0x00000000000d7194                cmd_memory_init
 .text          0x00000000000d71dc      0x754 /home/zhurish/workspace/working/zpl-source/source/debug/lib/libbase.a(jhash.o)
                0x00000000000d71dc                jhash
                0x00000000000d755c                jhash2
                0x00000000000d77c2                jhash_3words
                0x00000000000d78ec                jhash_2words
                0x00000000000d790e                jhash_1word
 .text          0x00000000000d7930       0xfe /home/zhurish/workspace/working/zpl-source/source/debug/lib/libbase.a(network.o)
                0x00000000000d7930                readn
                0x00000000000d7988                writen
                0x00000000000d79e0                htonf
                0x00000000000d7a0e                ntohf
 *fill*         0x00000000000d7a2e        0x2 
 .text          0x00000000000d7a30      0x1e4 /home/zhurish/workspace/working/zpl-source/source/debug/lib/libhal.a(hal_ipccmd.o)
                0x00000000000d7b20                hal_module_cmd_name
 .text          0x00000000000d7c14      0x9cc /home/zhurish/workspace/working/zpl-source/source/debug/lib/libhal.a(hal_ipcmsg.o)
                0x00000000000d7c14                hal_ipcmsg_msg_init
                0x00000000000d7c52                hal_ipcmsg_putnull
                0x00000000000d7c94                hal_ipcmsg_put
                0x00000000000d7ce8                hal_ipcmsg_putc
                0x00000000000d7d36                hal_ipcmsg_putw
                0x00000000000d7d8a                hal_ipcmsg_putl
                0x00000000000d7dd8                hal_ipcmsg_put_reset
                0x00000000000d7df4                hal_ipcmsg_getnull
                0x00000000000d7e52                hal_ipcmsg_get
                0x00000000000d7eba                hal_ipcmsg_getc
                0x00000000000d7f1a                hal_ipcmsg_getw
                0x00000000000d7f80                hal_ipcmsg_getl
                0x00000000000d7fe4                hal_ipcmsg_get_reset
                0x00000000000d8000                hal_ipcmsg_create
                0x00000000000d8048                hal_ipcmsg_destroy
                0x00000000000d8076                hal_ipcmsg_reset
                0x00000000000d80a4                hal_ipcmsg_create_header
                0x00000000000d80ec                hal_ipcmsg_hdr_unit_set
                0x00000000000d8112                hal_ipcmsg_hdr_unit_get
                0x00000000000d8134                hal_ipcmsg_hdrlen_set
                0x00000000000d815e                hal_ipcmsg_msglen_get
                0x00000000000d8176                hal_ipcmsg_get_setp
                0x00000000000d818e                hal_ipcmsg_get_getp
                0x00000000000d81a6                hal_ipcmsg_msg_copy
                0x00000000000d81e2                hal_ipcmsg_msg_clone
                0x00000000000d8210                hal_ipcmsg_send_message
                0x00000000000d8264                hal_ipcmsg_send_cmd
                0x00000000000d82b4                hal_ipcmsg_send
                0x00000000000d8300                hal_ipcmsg_port_set
                0x00000000000d834e                hal_ipcmsg_global_set
                0x00000000000d8376                hal_ipcmsg_table_set
                0x00000000000d839e                hal_ipcmsg_data_set
                0x00000000000d83fc                hal_ipcmsg_data_get
                0x00000000000d844a                hal_ipcmsg_global_get
                0x00000000000d8480                hal_ipcmsg_port_get
                0x00000000000d84c2                hal_ipcmsg_table_get
                0x00000000000d84f8                hal_ipcmsg_hexmsg
 .text          0x00000000000d85e0     0x116c /home/zhurish/workspace/working/zpl-source/source/debug/lib/libhal.a(hal_port.o)
                0x00000000000d85e0                hal_port_up
                0x00000000000d86b8                hal_port_down
                0x00000000000d8790                hal_port_mac_set
                0x00000000000d888c                hal_port_mtu_set
                0x00000000000d8968                hal_port_metric_set
                0x00000000000d8a44                hal_port_vrf_set
                0x00000000000d8b20                hal_port_speed_set
                0x00000000000d8bfc                hal_port_duplex_set
                0x00000000000d8cd8                hal_port_mode_set
                0x00000000000d8db4                hal_port_loop_set
                0x00000000000d8e90                hal_port_8021x_set
                0x00000000000d8f6c                hal_port_jumbo_set
                0x00000000000d8f8c                hal_port_enable_set
                0x00000000000d906c                hal_port_state_get
                0x00000000000d9140                hal_port_speed_get
                0x00000000000d920c                hal_port_duplex_get
                0x00000000000d92dc                hal_port_flow_set
                0x00000000000d93bc                hal_port_learning_set
                0x00000000000d94a0                hal_port_software_learning_set
                0x00000000000d9584                hal_port_protected_set
                0x00000000000d9668                hal_port_wan_set
 .text          0x00000000000d974c      0x508 /home/zhurish/workspace/working/zpl-source/source/debug/lib/libhal.a(hal_misc.o)
                0x00000000000d974c                hal_jumbo_size
                0x00000000000d9810                hal_jumbo_interface_enable
                0x00000000000d98f0                hal_snooping_enable
                0x00000000000d99d4                hal_eee_enable
                0x00000000000d9ab4                hal_eee_set
                0x00000000000d9b84                hal_eee_unset
 .text          0x00000000000d9c54      0x5d4 /home/zhurish/workspace/working/zpl-source/source/debug/lib/libhal.a(hal_mstp.o)
                0x00000000000d9c54                hal_mstp_enable
                0x00000000000d9d40                hal_mstp_create
                0x00000000000d9e28                hal_mstp_add_vlan
                0x00000000000d9f18                hal_mstp_del_vlan
                0x00000000000da008                hal_mstp_state
                0x00000000000da118                hal_stp_state
 .text          0x00000000000da228      0x278 /home/zhurish/workspace/working/zpl-source/source/debug/lib/libhal.a(hal_dos.o)
                0x00000000000da228                hal_dos_enable
                0x00000000000da2fc                hal_dos_tcp_hdr_size
                0x00000000000da3c0                hal_dos_icmp_size
 .text          0x00000000000da4a0      0x4bc /home/zhurish/workspace/working/zpl-source/source/debug/lib/libhal.a(hal_mac.o)
                0x00000000000da4a0                hal_mac_age
                0x00000000000da57c                hal_mac_add
                0x00000000000da68c                hal_mac_del
                0x00000000000da79c                hal_mac_clr
                0x00000000000da87c                hal_mac_read
 .text          0x00000000000da95c     0x1108 /home/zhurish/workspace/working/zpl-source/source/debug/lib/libhal.a(hal_vlan.o)
                0x00000000000da95c                hal_vlan_enable
                0x00000000000daa3c                hal_vlan_create
                0x00000000000dab1c                hal_vlan_destroy
                0x00000000000dabfc                hal_vlan_batch_create
                0x00000000000dad10                hal_vlan_batch_destroy
                0x00000000000dae24                hal_vlan_add_untag_port
                0x00000000000daf1c                hal_vlan_del_untag_port
                0x00000000000db014                hal_vlan_add_tag_port
                0x00000000000db10c                hal_vlan_del_tag_port
                0x00000000000db204                hal_port_add_native_vlan
                0x00000000000db2fc                hal_port_del_native_vlan
                0x00000000000db3f4                hal_port_add_allowed_tag_vlan
                0x00000000000db4ec                hal_port_del_allowed_tag_vlan
                0x00000000000db5e4                hal_port_add_allowed_tag_batch_vlan
                0x00000000000db728                hal_port_del_allowed_tag_batch_vlan
                0x00000000000db86c                hal_port_set_vlan
                0x00000000000db968                hal_port_unset_vlan
 .text          0x00000000000dba64      0x3b0 /home/zhurish/workspace/working/zpl-source/source/debug/lib/libhal.a(hal_trunk.o)
                0x00000000000dba64                hal_trunkid
                0x00000000000dba7a                hal_trunk_enable
                0x00000000000dbb28                hal_trunk_mode
                0x00000000000dbbd8                hal_trunk_add_interface
                0x00000000000dbc9c                hal_trunk_del_interface
                0x00000000000dbd60                hal_trunk_create
 .text          0x00000000000dbe14      0x30c /home/zhurish/workspace/working/zpl-source/source/debug/lib/libhal.a(hal_mirror.o)
                0x00000000000dbe14                hal_mirror_enable
                0x00000000000dbef4                hal_mirror_source_enable
                0x00000000000dbff4                hal_mirror_source_filter_enable
 .text          0x00000000000dc120      0x498 /home/zhurish/workspace/working/zpl-source/source/debug/lib/libhal.a(hal_driver.o)
                0x00000000000dc158                hal_module_init
                0x00000000000dc1a0                hal_module_exit
                0x00000000000dc1dc                hal_module_task_init
                0x00000000000dc280                hal_module_task_exit
                0x00000000000dc2d4                hal_cpu_port_mode
                0x00000000000dc35c                hal_cpu_port_enable
                0x00000000000dc3e4                hal_cpu_port_speed
                0x00000000000dc478                hal_cpu_port_duplex
                0x00000000000dc50c                hal_cpu_port_flow
 .text          0x00000000000dc5b8      0xbfc /home/zhurish/workspace/working/zpl-source/source/debug/lib/libhal.a(hal_test.o)
                0x00000000000dcfa8                hal_test_init
 .text          0x00000000000dd1b4      0x488 /home/zhurish/workspace/working/zpl-source/source/debug/lib/libhal.a(hal_global.o)
                0x00000000000dd1b4                hal_jumbo_size_set
                0x00000000000dd278                hal_switch_mode
                0x00000000000dd300                hal_switch_forward
                0x00000000000dd388                hal_multicast_flood
                0x00000000000dd410                hal_unicast_flood
                0x00000000000dd498                hal_multicast_learning
                0x00000000000dd520                hal_global_bpdu_enable
                0x00000000000dd5a8                hal_global_aging_time
 .text          0x00000000000dd63c     0x1f9c /home/zhurish/workspace/working/zpl-source/source/debug/lib/libhal.a(hal_ipcsrv.o)
                0x00000000000ded9c                hal_ipcsrv_send_ipcmsg
                0x00000000000dee30                hal_ipcsrv_copy_send_ipcmsg
                0x00000000000def04                hal_ipcsrv_send_message
                0x00000000000defd4                hal_ipcsrv_init
                0x00000000000df21c                hal_ipcsrv_exit
                0x00000000000df2b8                hal_ipcsrv_show
 .text          0x00000000000df5d8      0x488 /home/zhurish/workspace/working/zpl-source/source/debug/lib/libipcbc.a(if_manage.o)
                0x00000000000df9c4                unit_board_dynamic_install
                0x00000000000dfa34                bsp_usp_module_init
 .text          0x00000000000dfa60      0xa70 /home/zhurish/workspace/working/zpl-source/source/debug/lib/libipcbc.a(bmgt.o)
                0x00000000000dfa60                unit_board_init
                0x00000000000dfae0                unit_board_exit
                0x00000000000dfb48                unit_board_add
                0x00000000000dfc78                unit_board_del
                0x00000000000dfddc                unit_board_lookup
                0x00000000000dfe8c                unit_board_foreach
                0x00000000000dff28                unit_board_port_add
                0x00000000000e0008                unit_board_port_del
                0x00000000000e0104                unit_board_port_foreach
                0x00000000000e0182                unit_board_show
                0x00000000000e04c0                unit_board_waitting
 .text          0x00000000000e04d0      0x254 /home/zhurish/workspace/working/zpl-source/source/debug/lib/libipcbc.a(if_ktest.o)
                0x00000000000e0714                if_ktest_init
 .text          0x00000000000e0724      0xa70 /home/zhurish/workspace/working/zpl-source/source/debug/lib/libnsm.a(nsm_debug.o)
                0x00000000000e0f28                zebra_debug_init
 .text          0x00000000000e1194      0xb90 /home/zhurish/workspace/working/zpl-source/source/debug/lib/libos.a(os_nvram.o)
                0x00000000000e1194                os_nvram_env_init
                0x00000000000e121c                os_nvram_env_exit
                0x00000000000e13ac                os_nvram_env_add
                0x00000000000e14c4                os_nvram_env_set
                0x00000000000e1594                os_nvram_env_add_integer
                0x00000000000e16ac                os_nvram_env_del
                0x00000000000e1728                os_nvram_env_get
                0x00000000000e17c8                os_nvram_env_get_integer
                0x00000000000e1874                os_nvram_env_lookup
                0x00000000000e19e8                os_nvram_env_show
 .text          0x00000000000e1d24      0xcb8 /home/zhurish/workspace/working/zpl-source/source/debug/lib/libos.a(tty_com.o)
                0x00000000000e2186                tty_com_open
                0x00000000000e2234                tty_com_close
                0x00000000000e224c                tty_com_update_option
                0x00000000000e2264                tty_com_rw_begin
                0x00000000000e2296                tty_com_rw_end
                0x00000000000e22c8                tty_com_write
                0x00000000000e2326                tty_com_read
                0x00000000000e236e                tty_com_putc
                0x00000000000e23a8                tty_com_getc
                0x00000000000e23e4                tty_iscom
                0x00000000000e244c                tty_isopen
                0x00000000000e246e                tty_com_slip_write
                0x00000000000e24f6                tty_com_slip_read
                0x00000000000e25d6                tty_com_slip_encapsulation
                0x00000000000e26c0                tty_com_slip_decapsulation
                0x00000000000e286c                tty_com_slip_decode_byte
 .text          0x00000000000e29dc       0xd8 /home/zhurish/workspace/working/zpl-source/source/debug/lib/libos.a(cmd_os.o)
                0x00000000000e2a7c                cmd_os_init
 .text          0x00000000000e2ab4      0x2cc /home/zhurish/workspace/working/zpl-source/source/debug/lib/libos.a(cmd_nvram_env.o)
                0x00000000000e2d0c                cmd_nvram_env_init
 .text          0x00000000000e2d80     0x2774 /home/zhurish/workspace/working/zpl-source/source/debug/lib/libos.a(os_message.o)
                0x00000000000e2d80                zpl_osmsg_new
                0x00000000000e2dfc                zpl_osmsg_free
                0x00000000000e2e24                zpl_osmsg_copy
                0x00000000000e2f08                zpl_osmsg_dup
                0x00000000000e2f98                zpl_osmsg_dupcat
                0x00000000000e30e0                zpl_osmsg_resize
                0x00000000000e3200                zpl_osmsg_get_getp
                0x00000000000e3274                zpl_osmsg_get_endp
                0x00000000000e32e8                zpl_osmsg_get_size
                0x00000000000e335c                zpl_osmsg_set_getp
                0x00000000000e33fc                zpl_osmsg_set_endp
                0x00000000000e3520                zpl_osmsg_forward_getp
                0x00000000000e35d0                zpl_osmsg_forward_endp
                0x00000000000e3680                zpl_osmsg_get
                0x00000000000e3744                zpl_osmsg_getc
                0x00000000000e37f8                zpl_osmsg_getc_from
                0x00000000000e38a8                zpl_osmsg_getw
                0x00000000000e397c                zpl_osmsg_getw_from
                0x00000000000e3a44                zpl_osmsg_getl_from
                0x00000000000e3b3c                zpl_osmsg_getl
                0x00000000000e3c48                zpl_osmsg_getq_from
                0x00000000000e3e84                zpl_osmsg_getq
                0x00000000000e40e0                zpl_osmsg_get_ipv4
                0x00000000000e419c                zpl_osmsg_getf
                0x00000000000e41be                zpl_osmsg_getd
                0x00000000000e41e6                zpl_osmsg_put
                0x00000000000e42e4                zpl_osmsg_putc
                0x00000000000e439c                zpl_osmsg_putw
                0x00000000000e4474                zpl_osmsg_putl
                0x00000000000e4578                zpl_osmsg_putq
                0x00000000000e473c                zpl_osmsg_putf
                0x00000000000e4760                zpl_osmsg_putd
                0x00000000000e478c                zpl_osmsg_putc_at
                0x00000000000e4840                zpl_osmsg_putw_at
                0x00000000000e4908                zpl_osmsg_putl_at
                0x00000000000e49f0                zpl_osmsg_putq_at
                0x00000000000e4b84                zpl_osmsg_put_ipv4
                0x00000000000e4c40                zpl_osmsg_pnt
                0x00000000000e4cbc                zpl_osmsg_empty
                0x00000000000e4d3c                zpl_osmsg_reset
                0x00000000000e4dbc                zpl_osmsg_discard
                0x00000000000e4e84                zpl_osmsg_readfd
                0x00000000000e4fb0                zpl_osmsg_read_try
                0x00000000000e50b4                zpl_osmsg_recvfrom
                0x00000000000e51c8                zpl_osmsg_recvmsg
                0x00000000000e52d8                zpl_osmsg_writefd
                0x00000000000e5354                zpl_osmsg_write_try
                0x00000000000e5388                zpl_osmsg_sendto
                0x00000000000e53ca                zpl_osmsg_sendmsg
                0x00000000000e540e                zpl_osmsg_flush
 .text          0x00000000000e54f4      0x90c /home/zhurish/workspace/working/zpl-source/source/debug/lib/libshell.a(cmd_vty.o)
                0x00000000000e5c3c                cmd_vty_init
 .text          0x00000000000e5e00      0x2c4 /home/zhurish/workspace/working/zpl-source/source/debug/lib/libshell.a(cmd_user_vty.o)
                0x00000000000e5fea                cmd_vty_user_init
 .text          0x00000000000e60c4       0x40 /opt/gcc-linaro-7.5.0-arm-linux-gnueabihf/bin/../arm-linux-gnueabihf/libc/usr/lib/libc_nonshared.a(elf-init.oS)
                0x00000000000e60c4                __libc_csu_init
                0x00000000000e6100                __libc_csu_fini
 .text          0x00000000000e6104        0xc /opt/gcc-linaro-7.5.0-arm-linux-gnueabihf/bin/../arm-linux-gnueabihf/libc/usr/lib/libc_nonshared.a(stat.oS)
                0x00000000000e6104                __stat
                0x00000000000e6104                stat
 .text          0x00000000000e6110        0x0 /opt/gcc-linaro-7.5.0-arm-linux-gnueabihf/bin/../lib/gcc/arm-linux-gnueabihf/7.5.0/crtend.o
 .text          0x00000000000e6110        0x0 /opt/gcc-linaro-7.5.0-arm-linux-gnueabihf/bin/../arm-linux-gnueabihf/libc/usr/lib/crtn.o
 *(.gnu.warning)
 *(.glue_7t)
 .glue_7t       0x00000000000e6110        0x0 linker stubs
 *(.glue_7)
 .glue_7        0x00000000000e6110        0x0 linker stubs
 *(.vfp11_veneer)
 .vfp11_veneer  0x00000000000e6110        0x0 linker stubs
 *(.v4_bx)
 .v4_bx         0x00000000000e6110        0x0 linker stubs

.fini           0x00000000000e6110        0x8
 *(SORT(.fini))
 .fini          0x00000000000e6110        0x4 /opt/gcc-linaro-7.5.0-arm-linux-gnueabihf/bin/../arm-linux-gnueabihf/libc/usr/lib/crti.o
                0x00000000000e6110                _fini
 .fini          0x00000000000e6114        0x4 /opt/gcc-linaro-7.5.0-arm-linux-gnueabihf/bin/../arm-linux-gnueabihf/libc/usr/lib/crtn.o
                [!provide]                        PROVIDE (__etext, .)
                [!provide]                        PROVIDE (_etext, .)
                [!provide]                        PROVIDE (etext, .)

.rodata         0x00000000000e6118    0x5d645
 *(.rodata .rodata.* .gnu.linkonce.r.*)
 .rodata.cst4   0x00000000000e6118        0x4 /opt/gcc-linaro-7.5.0-arm-linux-gnueabihf/bin/../arm-linux-gnueabihf/libc/usr/lib/crt1.o
                0x00000000000e6118                _IO_stdin_used
 .rodata        0x00000000000e611c      0x3dd os_main.o
 *fill*         0x00000000000e64f9        0x3 
 .rodata        0x00000000000e64fc      0x9e9 /home/zhurish/workspace/working/zpl-source/source/debug/lib/libbase.a(log.o)
 *fill*         0x00000000000e6ee5        0x3 
 .rodata        0x00000000000e6ee8       0x27 /home/zhurish/workspace/working/zpl-source/source/debug/lib/libbase.a(module.o)
 *fill*         0x00000000000e6f0f        0x1 
 .rodata        0x00000000000e6f10      0x281 /home/zhurish/workspace/working/zpl-source/source/debug/lib/libbase.a(memory.o)
 *fill*         0x00000000000e7191        0x3 
 .rodata        0x00000000000e7194     0x136e /home/zhurish/workspace/working/zpl-source/source/debug/lib/libbase.a(memtypes.o)
 *fill*         0x00000000000e8502        0x2 
 .rodata        0x00000000000e8504      0x604 /home/zhurish/workspace/working/zpl-source/source/debug/lib/libbase.a(command.o)
 .rodata        0x00000000000e8b08       0x6c /home/zhurish/workspace/working/zpl-source/source/debug/lib/libbase.a(cli_node.o)
 .rodata        0x00000000000e8b74      0x219 /home/zhurish/workspace/working/zpl-source/source/debug/lib/libbase.a(host.o)
 *fill*         0x00000000000e8d8d        0x3 
 .rodata        0x00000000000e8d90     0x15e5 /home/zhurish/workspace/working/zpl-source/source/debug/lib/libbase.a(cmd_host.o)
 *fill*         0x00000000000ea375        0x3 
 .rodata        0x00000000000ea378       0x71 /home/zhurish/workspace/working/zpl-source/source/debug/lib/libbase.a(hash.o)
 *fill*         0x00000000000ea3e9        0x3 
 .rodata        0x00000000000ea3ec       0xeb /home/zhurish/workspace/working/zpl-source/source/debug/lib/libbase.a(str.o)
 *fill*         0x00000000000ea4d7        0x1 
 .rodata        0x00000000000ea4d8       0x44 /home/zhurish/workspace/working/zpl-source/source/debug/lib/libbase.a(moduletypes.o)
 .rodata        0x00000000000ea51c      0xa15 /home/zhurish/workspace/working/zpl-source/source/debug/lib/libbase.a(prefix.o)
 *fill*         0x00000000000eaf31        0x3 
 .rodata        0x00000000000eaf34      0x28b /home/zhurish/workspace/working/zpl-source/source/debug/lib/libbase.a(workqueue.o)
 *fill*         0x00000000000eb1bf        0x1 
 .rodata        0x00000000000eb1c0      0x802 /home/zhurish/workspace/working/zpl-source/source/debug/lib/libbase.a(thread.o)
 *fill*         0x00000000000eb9c2        0x2 
 .rodata        0x00000000000eb9c4      0x14b /home/zhurish/workspace/working/zpl-source/source/debug/lib/libbase.a(linklist.o)
 *fill*         0x00000000000ebb0f        0x1 
 .rodata        0x00000000000ebb10      0x1b1 /home/zhurish/workspace/working/zpl-source/source/debug/lib/libnsm.a(moduletable.o)
 *fill*         0x00000000000ebcc1        0x3 
 .rodata        0x00000000000ebcc4       0x1c /home/zhurish/workspace/working/zpl-source/source/debug/lib/libnsm.a(nsm_main.o)
 .rodata        0x00000000000ebce0      0xa23 /home/zhurish/workspace/working/zpl-source/source/debug/lib/libnsm.a(nsm_interface.o)
 *fill*         0x00000000000ec703        0x1 
 .rodata        0x00000000000ec704       0x7d /home/zhurish/workspace/working/zpl-source/source/debug/lib/libnsm.a(nsm_arp.o)
 *fill*         0x00000000000ec781        0x3 
 .rodata        0x00000000000ec784      0x10c /home/zhurish/workspace/working/zpl-source/source/debug/lib/libnsm.a(nsm_bridge.o)
 .rodata        0x00000000000ec890      0x593 /home/zhurish/workspace/working/zpl-source/source/debug/lib/libnsm.a(nsm_dns.o)
 *fill*         0x00000000000ece23        0x1 
 .rodata        0x00000000000ece24      0x3e6 /home/zhurish/workspace/working/zpl-source/source/debug/lib/libnsm.a(nsm_firewalld.o)
 *fill*         0x00000000000ed20a        0x2 
 .rodata        0x00000000000ed20c        0x6 /home/zhurish/workspace/working/zpl-source/source/debug/lib/libnsm.a(nsm_mac.o)
 *fill*         0x00000000000ed212        0x2 
 .rodata        0x00000000000ed214      0x38f /home/zhurish/workspace/working/zpl-source/source/debug/lib/libnsm.a(nsm_vlan.o)
 *fill*         0x00000000000ed5a3        0x1 
 .rodata        0x00000000000ed5a4      0x3e3 /home/zhurish/workspace/working/zpl-source/source/debug/lib/libnsm.a(nsm_qos.o)
 *fill*         0x00000000000ed987        0x1 
 .rodata        0x00000000000ed988       0xb6 /home/zhurish/workspace/working/zpl-source/source/debug/lib/libnsm.a(nsm_qos_acl.o)
 *fill*         0x00000000000eda3e        0x2 
 .rodata        0x00000000000eda40      0x76f /home/zhurish/workspace/working/zpl-source/source/debug/lib/libnsm.a(nsm_trunk.o)
 *fill*         0x00000000000ee1af        0x1 
 .rodata        0x00000000000ee1b0       0xf7 /home/zhurish/workspace/working/zpl-source/source/debug/lib/libnsm.a(nsm_mirror.o)
 *fill*         0x00000000000ee2a7        0x1 
 .rodata        0x00000000000ee2a8       0xdc /home/zhurish/workspace/working/zpl-source/source/debug/lib/libnsm.a(nsm_tunnel.o)
 .rodata        0x00000000000ee384      0x138 /home/zhurish/workspace/working/zpl-source/source/debug/lib/libnsm.a(nsm_serial.o)
 .rodata        0x00000000000ee4bc       0xa5 /home/zhurish/workspace/working/zpl-source/source/debug/lib/libnsm.a(nsm_ppp.o)
 *fill*         0x00000000000ee561        0x3 
 .rodata        0x00000000000ee564       0x91 /home/zhurish/workspace/working/zpl-source/source/debug/lib/libnsm.a(nsm_vlaneth.o)
 *fill*         0x00000000000ee5f5        0x3 
 .rodata        0x00000000000ee5f8     0x1dd3 /home/zhurish/workspace/working/zpl-source/source/debug/lib/libnsm.a(cmd_interface.o)
 *fill*         0x00000000000f03cb        0x1 
 .rodata        0x00000000000f03cc       0xe7 /home/zhurish/workspace/working/zpl-source/source/debug/lib/libnsm.a(cmd_routerid.o)
 *fill*         0x00000000000f04b3        0x1 
 .rodata        0x00000000000f04b4      0x237 /home/zhurish/workspace/working/zpl-source/source/debug/lib/libnsm.a(cmd_port.o)
 *fill*         0x00000000000f06eb        0x1 
 .rodata        0x00000000000f06ec     0xd6ee /home/zhurish/workspace/working/zpl-source/source/debug/lib/libnsm.a(cmd_route.o)
 *fill*         0x00000000000fddda        0x2 
 .rodata        0x00000000000fdddc      0xc65 /home/zhurish/workspace/working/zpl-source/source/debug/lib/libnsm.a(cmd_dot1x.o)
 *fill*         0x00000000000fea41        0x3 
 .rodata        0x00000000000fea44      0xa89 /home/zhurish/workspace/working/zpl-source/source/debug/lib/libnsm.a(cmd_arp.o)
 *fill*         0x00000000000ff4cd        0x3 
 .rodata        0x00000000000ff4d0      0x474 /home/zhurish/workspace/working/zpl-source/source/debug/lib/libnsm.a(cmd_bridge.o)
 .rodata        0x00000000000ff944      0x4c1 /home/zhurish/workspace/working/zpl-source/source/debug/lib/libnsm.a(cmd_dns.o)
 *fill*         0x00000000000ffe05        0x3 
 .rodata        0x00000000000ffe08      0x40b /home/zhurish/workspace/working/zpl-source/source/debug/lib/libnsm.a(cmd_dos.o)
 *fill*         0x0000000000100213        0x1 
 .rodata        0x0000000000100214      0x9c8 /home/zhurish/workspace/working/zpl-source/source/debug/lib/libnsm.a(cmd_mac.o)
 .rodata        0x0000000000100bdc      0xe56 /home/zhurish/workspace/working/zpl-source/source/debug/lib/libnsm.a(cmd_vlan.o)
 *fill*         0x0000000000101a32        0x2 
 .rodata        0x0000000000101a34     0x14fd /home/zhurish/workspace/working/zpl-source/source/debug/lib/libnsm.a(cmd_qos.o)
 *fill*         0x0000000000102f31        0x3 
 .rodata        0x0000000000102f34    0x13de6 /home/zhurish/workspace/working/zpl-source/source/debug/lib/libnsm.a(cmd_qos_acl.o)
 *fill*         0x0000000000116d1a        0x2 
 .rodata        0x0000000000116d1c      0x474 /home/zhurish/workspace/working/zpl-source/source/debug/lib/libnsm.a(cmd_trunk.o)
 .rodata        0x0000000000117190      0x98d /home/zhurish/workspace/working/zpl-source/source/debug/lib/libnsm.a(cmd_mirror.o)
 *fill*         0x0000000000117b1d        0x3 
 .rodata        0x0000000000117b20      0x672 /home/zhurish/workspace/working/zpl-source/source/debug/lib/libnsm.a(cmd_tunnel.o)
 *fill*         0x0000000000118192        0x2 
 .rodata        0x0000000000118194      0x442 /home/zhurish/workspace/working/zpl-source/source/debug/lib/libnsm.a(cmd_serial.o)
 *fill*         0x00000000001185d6        0x2 
 .rodata        0x00000000001185d8      0xb40 /home/zhurish/workspace/working/zpl-source/source/debug/lib/libnsm.a(cmd_ppp.o)
 .rodata        0x0000000000119118       0x16 /home/zhurish/workspace/working/zpl-source/source/debug/lib/libos.a(os_ipstack.o)
 *fill*         0x000000000011912e        0x2 
 .rodata        0x0000000000119130       0x8e /home/zhurish/workspace/working/zpl-source/source/debug/lib/libos.a(os_job.o)
 *fill*         0x00000000001191be        0x2 
 .rodata        0x00000000001191c0      0x2e3 /home/zhurish/workspace/working/zpl-source/source/debug/lib/libos.a(os_task.o)
 *fill*         0x00000000001194a3        0x1 
 .rodata        0x00000000001194a4     0x2103 /home/zhurish/workspace/working/zpl-source/source/debug/lib/libos.a(os_time.o)
 *fill*         0x000000000011b5a7        0x1 
 .rodata        0x000000000011b5a8      0x13b /home/zhurish/workspace/working/zpl-source/source/debug/lib/libos.a(os_util.o)
 *fill*         0x000000000011b6e3        0x1 
 .rodata        0x000000000011b6e4       0x6c /home/zhurish/workspace/working/zpl-source/source/debug/lib/libos.a(os_socket.o)
 .rodata        0x000000000011b750       0x73 /home/zhurish/workspace/working/zpl-source/source/debug/lib/libos.a(os_process.o)
 *fill*         0x000000000011b7c3        0x1 
 .rodata        0x000000000011b7c4       0x78 /home/zhurish/workspace/working/zpl-source/source/debug/lib/libos.a(os_file.o)
 .rodata        0x000000000011b83c       0x84 /home/zhurish/workspace/working/zpl-source/source/debug/lib/libos.a(os_signal.o)
 .rodata        0x000000000011b8c0       0x47 /home/zhurish/workspace/working/zpl-source/source/debug/lib/libos.a(os_backtrace.o)
 *fill*         0x000000000011b907        0x1 
 .rodata        0x000000000011b908      0x319 /home/zhurish/workspace/working/zpl-source/source/debug/lib/libos.a(libnetpro.o)
 *fill*         0x000000000011bc21        0x3 
 .rodata        0x000000000011bc24       0x6e /home/zhurish/workspace/working/zpl-source/source/debug/lib/libos.a(zpl_errno.o)
 *fill*         0x000000000011bc92        0x2 
 .rodata        0x000000000011bc94       0x1e /home/zhurish/workspace/working/zpl-source/source/debug/lib/libpal.a(pal_driver.o)
 *fill*         0x000000000011bcb2        0x2 
 .rodata        0x000000000011bcb4      0x223 /home/zhurish/workspace/working/zpl-source/source/debug/lib/libpal.a(kernel_packet.o)
 *fill*         0x000000000011bed7        0x1 
 .rodata        0x000000000011bed8      0x15b /home/zhurish/workspace/working/zpl-source/source/debug/lib/libpal.a(kernel_arp.o)
 *fill*         0x000000000011c033        0x1 
 .rodata        0x000000000011c034       0x1b /home/zhurish/workspace/working/zpl-source/source/debug/lib/libpal.a(kernel_ipforward.o)
 *fill*         0x000000000011c04f        0x1 
 .rodata        0x000000000011c050      0x26d /home/zhurish/workspace/working/zpl-source/source/debug/lib/libpal.a(kernel_ioctl.o)
 *fill*         0x000000000011c2bd        0x3 
 .rodata        0x000000000011c2c0      0x14a /home/zhurish/workspace/working/zpl-source/source/debug/lib/libpal.a(kernel_vrf.o)
 *fill*         0x000000000011c40a        0x2 
 .rodata        0x000000000011c40c       0x95 /home/zhurish/workspace/working/zpl-source/source/debug/lib/libpal.a(kernel_nladdress.o)
 *fill*         0x000000000011c4a1        0x3 
 .rodata        0x000000000011c4a4       0x1d /home/zhurish/workspace/working/zpl-source/source/debug/lib/libpal.a(kernel_nliface.o)
 *fill*         0x000000000011c4c1        0x3 
 .rodata        0x000000000011c4c4      0x1a5 /home/zhurish/workspace/working/zpl-source/source/debug/lib/libpal.a(kernel_firewalld.o)
 *fill*         0x000000000011c669        0x3 
 .rodata        0x000000000011c66c      0x620 /home/zhurish/workspace/working/zpl-source/source/debug/lib/libpal.a(kernel_netlink.o)
 .rodata        0x000000000011cc8c      0x5ab /home/zhurish/workspace/working/zpl-source/source/debug/lib/libproduct.a(hal_client.o)
 *fill*         0x000000000011d237        0x1 
 .rodata        0x000000000011d238      0x2d5 /home/zhurish/workspace/working/zpl-source/source/debug/lib/libproduct.a(bsp_driver.o)
 *fill*         0x000000000011d50d        0x3 
 .rodata        0x000000000011d510      0x2b1 /home/zhurish/workspace/working/zpl-source/source/debug/lib/libproduct.a(bsp_global.o)
 *fill*         0x000000000011d7c1        0x3 
 .rodata        0x000000000011d7c4      0x44f /home/zhurish/workspace/working/zpl-source/source/debug/lib/libproduct.a(bsp_port.o)
 *fill*         0x000000000011dc13        0x1 
 .rodata        0x000000000011dc14      0x1df /home/zhurish/workspace/working/zpl-source/source/debug/lib/libproduct.a(bsp_mstp.o)
 *fill*         0x000000000011ddf3        0x1 
 .rodata        0x000000000011ddf4      0x1a4 /home/zhurish/workspace/working/zpl-source/source/debug/lib/libproduct.a(bsp_8021x.o)
 .rodata        0x000000000011df98      0x192 /home/zhurish/workspace/working/zpl-source/source/debug/lib/libproduct.a(bsp_dos.o)
 *fill*         0x000000000011e12a        0x2 
 .rodata        0x000000000011e12c      0x162 /home/zhurish/workspace/working/zpl-source/source/debug/lib/libproduct.a(bsp_mac.o)
 *fill*         0x000000000011e28e        0x2 
 .rodata        0x000000000011e290      0x2ff /home/zhurish/workspace/working/zpl-source/source/debug/lib/libproduct.a(bsp_vlan.o)
 *fill*         0x000000000011e58f        0x1 
 .rodata        0x000000000011e590      0x167 /home/zhurish/workspace/working/zpl-source/source/debug/lib/libproduct.a(bsp_qinq.o)
 *fill*         0x000000000011e6f7        0x1 
 .rodata        0x000000000011e6f8      0x372 /home/zhurish/workspace/working/zpl-source/source/debug/lib/libproduct.a(bsp_qos.o)
 *fill*         0x000000000011ea6a        0x2 
 .rodata        0x000000000011ea6c      0x1e0 /home/zhurish/workspace/working/zpl-source/source/debug/lib/libproduct.a(bsp_trunk.o)
 .rodata        0x000000000011ec4c      0x19d /home/zhurish/workspace/working/zpl-source/source/debug/lib/libproduct.a(bsp_mirror.o)
 *fill*         0x000000000011ede9        0x3 
 .rodata        0x000000000011edec      0x1ce /home/zhurish/workspace/working/zpl-source/source/debug/lib/libproduct.a(bsp_cpu.o)
 *fill*         0x000000000011efba        0x2 
 .rodata        0x000000000011efbc      0xb19 /home/zhurish/workspace/working/zpl-source/source/debug/lib/librtpl.a(nsm_rib.o)
 *fill*         0x000000000011fad5        0x3 
 .rodata        0x000000000011fad8       0xfe /home/zhurish/workspace/working/zpl-source/source/debug/lib/librtpl.a(router-id.o)
 *fill*         0x000000000011fbd6        0x2 
 .rodata        0x000000000011fbd8      0x3d0 /home/zhurish/workspace/working/zpl-source/source/debug/lib/librtpl.a(nsm_redistribute.o)
 .rodata        0x000000000011ffa8      0x70e /home/zhurish/workspace/working/zpl-source/source/debug/lib/librtpl.a(nsm_zserv.o)
 *fill*         0x00000000001206b6        0x2 
 .rodata        0x00000000001206b8      0x41a /home/zhurish/workspace/working/zpl-source/source/debug/lib/librtpl.a(nsm_rnh.o)
 *fill*         0x0000000000120ad2        0x2 
 .rodata        0x0000000000120ad4      0x38f /home/zhurish/workspace/working/zpl-source/source/debug/lib/libsdk.a(b53_mac_tbl.o)
 *fill*         0x0000000000120e63        0x1 
 .rodata        0x0000000000120e64      0x25b /home/zhurish/workspace/working/zpl-source/source/debug/lib/libsdk.a(b53_driver.o)
 *fill*         0x00000000001210bf        0x1 
 .rodata        0x00000000001210c0       0x8c /home/zhurish/workspace/working/zpl-source/source/debug/lib/libsdk.a(b53_mdio.o)
 .rodata        0x000000000012114c      0x657 /home/zhurish/workspace/working/zpl-source/source/debug/lib/libsdk.a(b53_global.o)
 *fill*         0x00000000001217a3        0x1 
 .rodata        0x00000000001217a4      0x5bc /home/zhurish/workspace/working/zpl-source/source/debug/lib/libsdk.a(b53_dos.o)
 .rodata        0x0000000000121d60      0x1f8 /home/zhurish/workspace/working/zpl-source/source/debug/lib/libsdk.a(b53_mirror.o)
 .rodata        0x0000000000121f58      0x446 /home/zhurish/workspace/working/zpl-source/source/debug/lib/libsdk.a(b53_port.o)
 *fill*         0x000000000012239e        0x2 
 .rodata        0x00000000001223a0      0x113 /home/zhurish/workspace/working/zpl-source/source/debug/lib/libsdk.a(b53_stp.o)
 *fill*         0x00000000001224b3        0x1 
 .rodata        0x00000000001224b4      0x125 /home/zhurish/workspace/working/zpl-source/source/debug/lib/libsdk.a(b53_trunk.o)
 *fill*         0x00000000001225d9        0x3 
 .rodata        0x00000000001225dc      0x30c /home/zhurish/workspace/working/zpl-source/source/debug/lib/libsdk.a(b53_vlan.o)
 .rodata        0x00000000001228e8      0x352 /home/zhurish/workspace/working/zpl-source/source/debug/lib/libsdk.a(b53_qos.o)
 *fill*         0x0000000000122c3a        0x2 
 .rodata        0x0000000000122c3c      0x2c7 /home/zhurish/workspace/working/zpl-source/source/debug/lib/libsdk.a(b53_rate.o)
 *fill*         0x0000000000122f03        0x1 
 .rodata        0x0000000000122f04       0xfc /home/zhurish/workspace/working/zpl-source/source/debug/lib/libsdk.a(b53_eap.o)
 .rodata        0x0000000000123000       0xb1 /home/zhurish/workspace/working/zpl-source/source/debug/lib/libsdk.a(b53_phy.o)
 *fill*         0x00000000001230b1        0x3 
 .rodata        0x00000000001230b4      0x124 /home/zhurish/workspace/working/zpl-source/source/debug/lib/libsdk.a(b53_cpu.o)
 .rodata        0x00000000001231d8      0x2ad /home/zhurish/workspace/working/zpl-source/source/debug/lib/libshell.a(vty_user.o)
 *fill*         0x0000000000123485        0x3 
 .rodata        0x0000000000123488      0xae4 /home/zhurish/workspace/working/zpl-source/source/debug/lib/libshell.a(vty.o)
 .rodata        0x0000000000123f6c      0x226 /home/zhurish/workspace/working/zpl-source/source/debug/lib/libstartup.a(os_start.o)
 *fill*         0x0000000000124192        0x2 
 .rodata        0x0000000000124194      0x2b1 /home/zhurish/workspace/working/zpl-source/source/debug/lib/libstartup.a(os_test.o)
 *fill*         0x0000000000124445        0x3 
 .rodata        0x0000000000124448      0x15b /home/zhurish/workspace/working/zpl-source/source/debug/lib/libuci.a(os_uci.o)
 *fill*         0x00000000001245a3        0x1 
 .rodata        0x00000000001245a4       0x2a /home/zhurish/workspace/working/zpl-source/source/debug/lib/libuci.a(delta.o)
                0x00000000001245c0                uci_command_char
 *fill*         0x00000000001245ce        0x2 
 .rodata        0x00000000001245d0      0x20d /home/zhurish/workspace/working/zpl-source/source/debug/lib/libuci.a(file.o)
 *fill*         0x00000000001247dd        0x3 
 .rodata        0x00000000001247e0       0x12 /home/zhurish/workspace/working/zpl-source/source/debug/lib/libuci.a(util.o)
 *fill*         0x00000000001247f2        0x2 
 .rodata        0x00000000001247f4       0xda /home/zhurish/workspace/working/zpl-source/source/debug/lib/libuci.a(libuci.o)
 *fill*         0x00000000001248ce        0x2 
 .rodata        0x00000000001248d0      0x144 /home/zhurish/workspace/working/zpl-source/source/debug/lib/libbase.a(md5.o)
 .rodata        0x0000000000124a14      0x38e /home/zhurish/workspace/working/zpl-source/source/debug/lib/libbase.a(sockunion.o)
 *fill*         0x0000000000124da2        0x2 
 .rodata        0x0000000000124da4       0xa2 /home/zhurish/workspace/working/zpl-source/source/debug/lib/libbase.a(pid_output.o)
 *fill*         0x0000000000124e46        0x2 
 .rodata        0x0000000000124e48      0x24d /home/zhurish/workspace/working/zpl-source/source/debug/lib/libbase.a(buffer.o)
 *fill*         0x0000000000125095        0x3 
 .rodata        0x0000000000125098      0x174 /home/zhurish/workspace/working/zpl-source/source/debug/lib/libbase.a(template.o)
 .rodata        0x000000000012520c      0x825 /home/zhurish/workspace/working/zpl-source/source/debug/lib/libbase.a(stream.o)
 *fill*         0x0000000000125a31        0x3 
 .rodata        0x0000000000125a34       0xde /home/zhurish/workspace/working/zpl-source/source/debug/lib/libbase.a(nexthop.o)
 *fill*         0x0000000000125b12        0x2 
 .rodata        0x0000000000125b14      0x255 /home/zhurish/workspace/working/zpl-source/source/debug/lib/libbase.a(table.o)
 *fill*         0x0000000000125d69        0x3 
 .rodata        0x0000000000125d6c      0x34a /home/zhurish/workspace/working/zpl-source/source/debug/lib/libbase.a(connected.o)
 *fill*         0x00000000001260b6        0x2 
 .rodata        0x00000000001260b8      0x6b9 /home/zhurish/workspace/working/zpl-source/source/debug/lib/libbase.a(if.o)
 *fill*         0x0000000000126771        0x3 
 .rodata        0x0000000000126774      0x15c /home/zhurish/workspace/working/zpl-source/source/debug/lib/libbase.a(nsm_vrf.o)
 .rodata        0x00000000001268d0      0x4b0 /home/zhurish/workspace/working/zpl-source/source/debug/lib/libbase.a(if_name.o)
 .rodata        0x0000000000126d80       0xf3 /home/zhurish/workspace/working/zpl-source/source/debug/lib/libbase.a(nsm_event.o)
 *fill*         0x0000000000126e73        0x1 
 .rodata        0x0000000000126e74     0x13f6 /home/zhurish/workspace/working/zpl-source/source/debug/lib/libbase.a(keychain.o)
 *fill*         0x000000000012826a        0x2 
 .rodata        0x000000000012826c     0xeed6 /home/zhurish/workspace/working/zpl-source/source/debug/lib/libbase.a(filter.o)
 *fill*         0x0000000000137142        0x2 
 .rodata        0x0000000000137144     0x51ca /home/zhurish/workspace/working/zpl-source/source/debug/lib/libbase.a(plist.o)
 *fill*         0x000000000013c30e        0x2 
 .rodata        0x000000000013c310     0x2986 /home/zhurish/workspace/working/zpl-source/source/debug/lib/libbase.a(cmd_log.o)
 *fill*         0x000000000013ec96        0x2 
 .rodata        0x000000000013ec98      0x242 /home/zhurish/workspace/working/zpl-source/source/debug/lib/libbase.a(cmd_memory.o)
 *fill*         0x000000000013eeda        0x2 
 .rodata        0x000000000013eedc      0x27d /home/zhurish/workspace/working/zpl-source/source/debug/lib/libhal.a(hal_ipccmd.o)
 *fill*         0x000000000013f159        0x3 
 .rodata        0x000000000013f15c       0xfe /home/zhurish/workspace/working/zpl-source/source/debug/lib/libhal.a(hal_ipcmsg.o)
 *fill*         0x000000000013f25a        0x2 
 .rodata        0x000000000013f25c      0x389 /home/zhurish/workspace/working/zpl-source/source/debug/lib/libhal.a(hal_port.o)
 *fill*         0x000000000013f5e5        0x3 
 .rodata        0x000000000013f5e8      0x132 /home/zhurish/workspace/working/zpl-source/source/debug/lib/libhal.a(hal_misc.o)
 *fill*         0x000000000013f71a        0x2 
 .rodata        0x000000000013f71c      0x12a /home/zhurish/workspace/working/zpl-source/source/debug/lib/libhal.a(hal_mstp.o)
 *fill*         0x000000000013f846        0x2 
 .rodata        0x000000000013f848       0xd2 /home/zhurish/workspace/working/zpl-source/source/debug/lib/libhal.a(hal_dos.o)
 *fill*         0x000000000013f91a        0x2 
 .rodata        0x000000000013f91c       0xd9 /home/zhurish/workspace/working/zpl-source/source/debug/lib/libhal.a(hal_mac.o)
 *fill*         0x000000000013f9f5        0x3 
 .rodata        0x000000000013f9f8      0x3b4 /home/zhurish/workspace/working/zpl-source/source/debug/lib/libhal.a(hal_vlan.o)
 .rodata        0x000000000013fdac       0xfc /home/zhurish/workspace/working/zpl-source/source/debug/lib/libhal.a(hal_mirror.o)
 .rodata        0x000000000013fea8       0x5e /home/zhurish/workspace/working/zpl-source/source/debug/lib/libhal.a(hal_driver.o)
 *fill*         0x000000000013ff06        0x2 
 .rodata        0x000000000013ff08      0x966 /home/zhurish/workspace/working/zpl-source/source/debug/lib/libhal.a(hal_test.o)
 *fill*         0x000000000014086e        0x2 
 .rodata        0x0000000000140870       0x83 /home/zhurish/workspace/working/zpl-source/source/debug/lib/libhal.a(hal_global.o)
 *fill*         0x00000000001408f3        0x1 
 .rodata        0x00000000001408f4      0x9a8 /home/zhurish/workspace/working/zpl-source/source/debug/lib/libhal.a(hal_ipcsrv.o)
 .rodata        0x000000000014129c      0x1af /home/zhurish/workspace/working/zpl-source/source/debug/lib/libipcbc.a(if_manage.o)
 *fill*         0x000000000014144b        0x1 
 .rodata        0x000000000014144c      0x254 /home/zhurish/workspace/working/zpl-source/source/debug/lib/libipcbc.a(bmgt.o)
 .rodata        0x00000000001416a0       0x59 /home/zhurish/workspace/working/zpl-source/source/debug/lib/libipcbc.a(if_ktest.o)
 *fill*         0x00000000001416f9        0x3 
 .rodata        0x00000000001416fc      0xc2a /home/zhurish/workspace/working/zpl-source/source/debug/lib/libnsm.a(nsm_debug.o)
 *fill*         0x0000000000142326        0x2 
 .rodata        0x0000000000142328       0x20 /home/zhurish/workspace/working/zpl-source/source/debug/lib/libos.a(os_nvram.o)
 .rodata        0x0000000000142348       0xa9 /home/zhurish/workspace/working/zpl-source/source/debug/lib/libos.a(tty_com.o)
 *fill*         0x00000000001423f1        0x3 
 .rodata        0x00000000001423f4       0x9b /home/zhurish/workspace/working/zpl-source/source/debug/lib/libos.a(cmd_os.o)
 *fill*         0x000000000014248f        0x1 
 .rodata        0x0000000000142490      0x22a /home/zhurish/workspace/working/zpl-source/source/debug/lib/libos.a(cmd_nvram_env.o)
 *fill*         0x00000000001426ba        0x2 
 .rodata        0x00000000001426bc      0x484 /home/zhurish/workspace/working/zpl-source/source/debug/lib/libos.a(os_message.o)
 .rodata        0x0000000000142b40      0x762 /home/zhurish/workspace/working/zpl-source/source/debug/lib/libshell.a(cmd_vty.o)
 *fill*         0x00000000001432a2        0x2 
 .rodata        0x00000000001432a4      0x4b9 /home/zhurish/workspace/working/zpl-source/source/debug/lib/libshell.a(cmd_user_vty.o)

.rodata1
 *(.rodata1)

.ARM.extab      0x000000000014375d        0x0
 *(.ARM.extab* .gnu.linkonce.armextab.*)
 .ARM.extab     0x000000000014375d        0x0 /opt/gcc-linaro-7.5.0-arm-linux-gnueabihf/bin/../arm-linux-gnueabihf/libc/usr/lib/crt1.o
                [!provide]                        PROVIDE (__exidx_start, .)

.ARM.exidx      0x0000000000143760        0x8
 *(.ARM.exidx* .gnu.linkonce.armexidx.*)
 .ARM.exidx     0x0000000000143760        0x8 /opt/gcc-linaro-7.5.0-arm-linux-gnueabihf/bin/../arm-linux-gnueabihf/libc/usr/lib/crt1.o
                [!provide]                        PROVIDE (__exidx_end, .)

.eh_frame_hdr
 *(.eh_frame_hdr)
 *(.eh_frame_entry .eh_frame_entry.*)

.eh_frame       0x0000000000143768        0x4
 *(.eh_frame)
 .eh_frame      0x0000000000143768        0x4 /opt/gcc-linaro-7.5.0-arm-linux-gnueabihf/bin/../lib/gcc/arm-linux-gnueabihf/7.5.0/crtend.o
 *(.eh_frame.*)

.gcc_except_table
 *(.gcc_except_table .gcc_except_table.*)

.gnu_extab
 *(.gnu_extab*)

.exception_ranges
 *(.exception_ranges .exception_ranges*)
                0x0000000000154764                . = DATA_SEGMENT_ALIGN (CONSTANT (MAXPAGESIZE), CONSTANT (COMMONPAGESIZE))

.eh_frame
 *(.eh_frame)
 *(.eh_frame.*)

.gnu_extab
 *(.gnu_extab)

.gcc_except_table
 *(.gcc_except_table .gcc_except_table.*)

.exception_ranges
 *(.exception_ranges .exception_ranges*)

.tdata
 *(.tdata .tdata.* .gnu.linkonce.td.*)

.tbss
 *(.tbss .tbss.* .gnu.linkonce.tb.*)
 *(.tcommon)

.preinit_array  0x0000000000154764        0x0
                [!provide]                        PROVIDE (__preinit_array_start, .)
 *(.preinit_array)
                [!provide]                        PROVIDE (__preinit_array_end, .)

.init_array     0x0000000000154764        0x4
                0x0000000000154764                PROVIDE (__init_array_start, .)
 *(SORT(.init_array.*) SORT(.ctors.*))
 *(.init_array EXCLUDE_FILE(*crtend?.o *crtend.o *crtbegin?.o *crtbegin.o) .ctors)
 .init_array    0x0000000000154764        0x4 /opt/gcc-linaro-7.5.0-arm-linux-gnueabihf/bin/../lib/gcc/arm-linux-gnueabihf/7.5.0/crtbegin.o
                0x0000000000154768                PROVIDE (__init_array_end, .)

.fini_array     0x0000000000154768        0x4
                [!provide]                        PROVIDE (__fini_array_start, .)
 *(SORT(.fini_array.*) SORT(.dtors.*))
 *(.fini_array EXCLUDE_FILE(*crtend?.o *crtend.o *crtbegin?.o *crtbegin.o) .dtors)
 .fini_array    0x0000000000154768        0x4 /opt/gcc-linaro-7.5.0-arm-linux-gnueabihf/bin/../lib/gcc/arm-linux-gnueabihf/7.5.0/crtbegin.o
                [!provide]                        PROVIDE (__fini_array_end, .)

.ctors
 *crtbegin.o(.ctors)
 *crtbegin?.o(.ctors)
 *(EXCLUDE_FILE(*crtend?.o *crtend.o) .ctors)
 *(SORT(.ctors.*))
 *(.ctors)

.dtors
 *crtbegin.o(.dtors)
 *crtbegin?.o(.dtors)
 *(EXCLUDE_FILE(*crtend?.o *crtend.o) .dtors)
 *(SORT(.dtors.*))
 *(.dtors)

.jcr
 *(.jcr)

.data.rel.ro    0x000000000015476c      0x76c
 *(.data.rel.ro.local* .gnu.linkonce.d.rel.ro.local.*)
 .data.rel.ro.local
                0x000000000015476c      0x510 /home/zhurish/workspace/working/zpl-source/source/debug/lib/libbase.a(log.o)
 .data.rel.ro.local
                0x0000000000154c7c       0x30 /home/zhurish/workspace/working/zpl-source/source/debug/lib/libbase.a(memory.o)
 .data.rel.ro.local
                0x0000000000154cac       0x24 /home/zhurish/workspace/working/zpl-source/source/debug/lib/libos.a(os_signal.o)
 .data.rel.ro.local
                0x0000000000154cd0       0xa0 /home/zhurish/workspace/working/zpl-source/source/debug/lib/libpal.a(kernel_netlink.o)
 .data.rel.ro.local
                0x0000000000154d70       0x48 /home/zhurish/workspace/working/zpl-source/source/debug/lib/libsdk.a(b53_driver.o)
 .data.rel.ro.local
                0x0000000000154db8       0x28 /home/zhurish/workspace/working/zpl-source/source/debug/lib/libsdk.a(b53_mdio.o)
 .data.rel.ro.local
                0x0000000000154de0       0xf8 /home/zhurish/workspace/working/zpl-source/source/debug/lib/libhal.a(hal_ipccmd.o)
 *(.data.rel.ro .data.rel.ro.* .gnu.linkonce.d.rel.ro.*)
 .data.rel.ro   0x0000000000154ed8        0x0 /opt/gcc-linaro-7.5.0-arm-linux-gnueabihf/bin/../arm-linux-gnueabihf/libc/usr/lib/crt1.o

.dynamic        0x0000000000154ed8      0x128
 *(.dynamic)
 .dynamic       0x0000000000154ed8      0x128 /opt/gcc-linaro-7.5.0-arm-linux-gnueabihf/bin/../arm-linux-gnueabihf/libc/usr/lib/crt1.o
                0x0000000000154ed8                _DYNAMIC
                0x0000000000155000                . = DATA_SEGMENT_RELRO_END (., 0x0)

.got            0x0000000000155000     0x16dc
 *(.got.plt)
 .got.plt       0x0000000000155000      0x3c4 /opt/gcc-linaro-7.5.0-arm-linux-gnueabihf/bin/../arm-linux-gnueabihf/libc/usr/lib/crt1.o
                0x0000000000155000                _GLOBAL_OFFSET_TABLE_
 *(.igot.plt)
 .igot.plt      0x00000000001553c4        0x0 /opt/gcc-linaro-7.5.0-arm-linux-gnueabihf/bin/../arm-linux-gnueabihf/libc/usr/lib/crt1.o
 *(.got)
 .got           0x00000000001553c4     0x1318 /opt/gcc-linaro-7.5.0-arm-linux-gnueabihf/bin/../arm-linux-gnueabihf/libc/usr/lib/crt1.o
 *(.igot)

.data           0x00000000001566dc     0xae40
                [!provide]                        PROVIDE (__data_start, .)
 *(.data .data.* .gnu.linkonce.d.*)
 .data          0x00000000001566dc        0x4 /opt/gcc-linaro-7.5.0-arm-linux-gnueabihf/bin/../arm-linux-gnueabihf/libc/usr/lib/crt1.o
                0x00000000001566dc                data_start
                0x00000000001566dc                __data_start
 .data          0x00000000001566e0        0x0 /opt/gcc-linaro-7.5.0-arm-linux-gnueabihf/bin/../arm-linux-gnueabihf/libc/usr/lib/crti.o
 .data          0x00000000001566e0        0x4 /opt/gcc-linaro-7.5.0-arm-linux-gnueabihf/bin/../lib/gcc/arm-linux-gnueabihf/7.5.0/crtbegin.o
                0x00000000001566e0                __dso_handle
 .data          0x00000000001566e4        0x0 os_main.o
 .data.rel.local
                0x00000000001566e4       0xd0 os_main.o
 .data          0x00000000001567b4        0x8 /home/zhurish/workspace/working/zpl-source/source/debug/lib/libbase.a(log.o)
 .data.rel.local
                0x00000000001567bc       0x2c /home/zhurish/workspace/working/zpl-source/source/debug/lib/libbase.a(log.o)
 .data          0x00000000001567e8        0x0 /home/zhurish/workspace/working/zpl-source/source/debug/lib/libbase.a(module.o)
 .data.rel.local
                0x00000000001567e8      0x2e4 /home/zhurish/workspace/working/zpl-source/source/debug/lib/libbase.a(module.o)
                0x00000000001567e8                module_list_default
                0x000000000015687c                module_list_lib
                0x0000000000156910                module_list_osal
                0x00000000001569a4                module_list_timer
                0x0000000000156a38                module_list_job
 .data          0x0000000000156acc        0x0 /home/zhurish/workspace/working/zpl-source/source/debug/lib/libbase.a(memory.o)
 .data          0x0000000000156acc        0x0 /home/zhurish/workspace/working/zpl-source/source/debug/lib/libbase.a(memtypes.o)
 .data.rel.local
                0x0000000000156acc      0x9d0 /home/zhurish/workspace/working/zpl-source/source/debug/lib/libbase.a(memtypes.o)
                0x0000000000156acc                memory_list_lib
                0x0000000000156d6c                memory_list_zebra
                0x0000000000156dd4                memory_list_bgp
                0x0000000000156ff4                memory_list_rip
                0x000000000015702c                memory_list_ripng
                0x0000000000157064                memory_list_babel
                0x000000000015707c                memory_list_ospf
                0x000000000015715c                memory_list_ospf6
                0x00000000001571e4                memory_list_isis
                0x0000000000157274                memory_list_pim
                0x00000000001572d4                memory_list_nhrp
                0x000000000015731c                memory_list_vtysh
                0x0000000000157334                memory_list_firewall
                0x000000000015735c                memory_list_port
                0x0000000000157414                memory_list_ssh
                0x000000000015745c                memory_list_qosacl
 .data.rel      0x000000000015749c       0x78 /home/zhurish/workspace/working/zpl-source/source/debug/lib/libbase.a(memtypes.o)
                0x000000000015749c                mlists
 .data          0x0000000000157514        0x0 /home/zhurish/workspace/working/zpl-source/source/debug/lib/libbase.a(command.o)
 .data.rel.local
                0x0000000000157514        0x4 /home/zhurish/workspace/working/zpl-source/source/debug/lib/libbase.a(command.o)
                0x0000000000157514                default_motd
 .data          0x0000000000157518        0x0 /home/zhurish/workspace/working/zpl-source/source/debug/lib/libbase.a(cli_node.o)
 .data          0x0000000000157518        0x0 /home/zhurish/workspace/working/zpl-source/source/debug/lib/libbase.a(host.o)
 .data          0x0000000000157518        0x0 /home/zhurish/workspace/working/zpl-source/source/debug/lib/libbase.a(cmd_host.o)
 .data.rel.local
                0x0000000000157518      0x519 /home/zhurish/workspace/working/zpl-source/source/debug/lib/libbase.a(cmd_host.o)
                0x00000000001575f0                config_terminal_cmd
                0x000000000015760c                config_enable_cmd
                0x0000000000157628                config_disable_cmd
                0x0000000000157644                config_exit_cmd
                0x0000000000157660                config_quit_cmd
                0x000000000015767c                config_end_cmd
                0x0000000000157698                show_version_cmd
                0x00000000001576b4                show_hidden_version_cmd
                0x00000000001576d0                show_system_cmd
                0x00000000001576ec                config_help_cmd
                0x0000000000157708                config_list_cmd
                0x0000000000157724                config_write_file_cmd
                0x0000000000157740                config_write_cmd
                0x000000000015775c                config_write_memory_cmd
                0x0000000000157778                copy_runningconfig_startupconfig_cmd
                0x0000000000157794                config_write_terminal_cmd
                0x00000000001577b0                show_running_config_cmd
                0x00000000001577cc                show_startup_config_cmd
                0x00000000001577e8                hostname_cmd
                0x0000000000157804                no_hostname_cmd
                0x0000000000157820                password_cmd
                0x000000000015783c                password_text_cmd
                0x0000000000157858                enable_password_cmd
                0x0000000000157874                enable_password_text_cmd
                0x0000000000157890                no_enable_password_cmd
                0x00000000001578ac                service_password_encrypt_cmd
                0x00000000001578c8                no_service_password_encrypt_cmd
                0x00000000001578e4                config_terminal_length_cmd
                0x0000000000157900                config_terminal_no_length_cmd
                0x000000000015791c                service_terminal_length_cmd
                0x0000000000157938                no_service_terminal_length_cmd
                0x0000000000157954                echo_cmd
                0x0000000000157970                banner_motd_file_cmd
                0x000000000015798c                banner_motd_default_cmd
                0x00000000001579a8                no_banner_motd_cmd
                0x00000000001579c4                system_description_cmd
                0x00000000001579e0                no_system_description_cmd
                0x00000000001579fc                show_commandtree_cmd
                0x0000000000157a18                show_time_queues_cmd
 .data          0x0000000000157a31        0x0 /home/zhurish/workspace/working/zpl-source/source/debug/lib/libbase.a(hash.o)
 *fill*         0x0000000000157a31        0x3 
 .data          0x0000000000157a34       0x20 /home/zhurish/workspace/working/zpl-source/source/debug/lib/libbase.a(str.o)
 .data          0x0000000000157a54        0x0 /home/zhurish/workspace/working/zpl-source/source/debug/lib/libbase.a(moduletypes.o)
 .data.rel.local
                0x0000000000157a54       0x9c /home/zhurish/workspace/working/zpl-source/source/debug/lib/libbase.a(moduletypes.o)
                0x0000000000157a54                module_tbl
 .data          0x0000000000157af0        0x0 /home/zhurish/workspace/working/zpl-source/source/debug/lib/libbase.a(prefix.o)
 .data          0x0000000000157af0        0x0 /home/zhurish/workspace/working/zpl-source/source/debug/lib/libbase.a(vector.o)
 .data          0x0000000000157af0        0x0 /home/zhurish/workspace/working/zpl-source/source/debug/lib/libbase.a(workqueue.o)
 .data.rel.local
                0x0000000000157af0       0x1d /home/zhurish/workspace/working/zpl-source/source/debug/lib/libbase.a(workqueue.o)
                0x0000000000157af4                show_work_queues_cmd
 .data          0x0000000000157b0d        0x0 /home/zhurish/workspace/working/zpl-source/source/debug/lib/libbase.a(thread.o)
 *fill*         0x0000000000157b0d        0x3 
 .data.rel.local
                0x0000000000157b10       0x89 /home/zhurish/workspace/working/zpl-source/source/debug/lib/libbase.a(thread.o)
                0x0000000000157b10                show_thread_cpu_cmd
                0x0000000000157b2c                show_thread_task_cpu_cmd
                0x0000000000157b48                clear_thread_cpu_cmd
                0x0000000000157b64                clear_thread_task_cpu_cmd
                0x0000000000157b80                show_thread_dump_cmd
 .data          0x0000000000157b99        0x0 /home/zhurish/workspace/working/zpl-source/source/debug/lib/libbase.a(linklist.o)
 .data          0x0000000000157b99        0x0 /home/zhurish/workspace/working/zpl-source/source/debug/lib/libbase.a(pqueue.o)
 .data          0x0000000000157b99        0x0 /home/zhurish/workspace/working/zpl-source/source/debug/lib/libnsm.a(moduletable.o)
 *fill*         0x0000000000157b99        0x3 
 .data.rel      0x0000000000157b9c       0x34 /home/zhurish/workspace/working/zpl-source/source/debug/lib/libnsm.a(moduletable.o)
                0x0000000000157b9c                module_lists_tbl
 .data          0x0000000000157bd0        0x0 /home/zhurish/workspace/working/zpl-source/source/debug/lib/libnsm.a(nsm_main.o)
 .data.rel      0x0000000000157bd0       0x94 /home/zhurish/workspace/working/zpl-source/source/debug/lib/libnsm.a(nsm_main.o)
                0x0000000000157bd0                module_list_nsm
 .data          0x0000000000157c64        0x0 /home/zhurish/workspace/working/zpl-source/source/debug/lib/libnsm.a(nsm_interface.o)
 .data          0x0000000000157c64        0x0 /home/zhurish/workspace/working/zpl-source/source/debug/lib/libnsm.a(nsm_8021x.o)
 .data          0x0000000000157c64        0x0 /home/zhurish/workspace/working/zpl-source/source/debug/lib/libnsm.a(nsm_arp.o)
 .data          0x0000000000157c64        0x0 /home/zhurish/workspace/working/zpl-source/source/debug/lib/libnsm.a(nsm_bridge.o)
 .data          0x0000000000157c64        0x1 /home/zhurish/workspace/working/zpl-source/source/debug/lib/libnsm.a(nsm_dns.o)
                0x0000000000157c64                _dns_debug
 .data          0x0000000000157c65        0x0 /home/zhurish/workspace/working/zpl-source/source/debug/lib/libnsm.a(nsm_dos.o)
 .data          0x0000000000157c65        0x0 /home/zhurish/workspace/working/zpl-source/source/debug/lib/libnsm.a(nsm_firewalld.o)
 *fill*         0x0000000000157c65        0x3 
 .data.rel.local
                0x0000000000157c68       0x75 /home/zhurish/workspace/working/zpl-source/source/debug/lib/libnsm.a(nsm_firewalld.o)
                0x0000000000157c68                firewall_service_default
 .data          0x0000000000157cdd        0x0 /home/zhurish/workspace/working/zpl-source/source/debug/lib/libnsm.a(nsm_mac.o)
 .data          0x0000000000157cdd        0x0 /home/zhurish/workspace/working/zpl-source/source/debug/lib/libnsm.a(nsm_vlan.o)
 *fill*         0x0000000000157cdd        0x3 
 .data          0x0000000000157ce0       0x4c /home/zhurish/workspace/working/zpl-source/source/debug/lib/libnsm.a(nsm_qos.o)
 .data          0x0000000000157d2c        0xc /home/zhurish/workspace/working/zpl-source/source/debug/lib/libnsm.a(nsm_qos_acl.o)
 .data          0x0000000000157d38       0x20 /home/zhurish/workspace/working/zpl-source/source/debug/lib/libnsm.a(nsm_trunk.o)
 .data          0x0000000000157d58       0x20 /home/zhurish/workspace/working/zpl-source/source/debug/lib/libnsm.a(nsm_mirror.o)
 .data          0x0000000000157d78        0x0 /home/zhurish/workspace/working/zpl-source/source/debug/lib/libnsm.a(nsm_tunnel.o)
 .data          0x0000000000157d78       0x20 /home/zhurish/workspace/working/zpl-source/source/debug/lib/libnsm.a(nsm_serial.o)
 .data          0x0000000000157d98        0x0 /home/zhurish/workspace/working/zpl-source/source/debug/lib/libnsm.a(nsm_ppp.o)
 .data          0x0000000000157d98        0x0 /home/zhurish/workspace/working/zpl-source/source/debug/lib/libnsm.a(nsm_security.o)
 .data          0x0000000000157d98        0x0 /home/zhurish/workspace/working/zpl-source/source/debug/lib/libnsm.a(nsm_vlaneth.o)
 .data          0x0000000000157d98        0x0 /home/zhurish/workspace/working/zpl-source/source/debug/lib/libnsm.a(cmd_interface.o)
 .data.rel.local
                0x0000000000157d98      0x6fc /home/zhurish/workspace/working/zpl-source/source/debug/lib/libnsm.a(cmd_interface.o)
                0x0000000000157d98                nsm_interface_desc_cmd
                0x0000000000157db4                no_nsm_interface_desc_cmd
                0x0000000000157dd0                nsm_interface_cmd
                0x0000000000157dec                nsm_interface_sub_cmd
                0x0000000000157e08                nsm_interface_loopback_cmd
                0x0000000000157e24                no_nsm_interface_loopback_cmd
                0x0000000000157e40                nsm_interface_vlan_cmd
                0x0000000000157e5c                no_nsm_interface_vlan_cmd
                0x0000000000157e78                nsm_interface_trunk_cmd
                0x0000000000157e94                no_nsm_interface_trunk_cmd
                0x0000000000157eb0                no_nsm_interface_cmd
                0x0000000000157ecc                hidden_nsm_interface_cmd
                0x0000000000157ee8                hidden_no_nsm_interface_cmd
                0x0000000000157f04                nsm_interface_range_cmd
                0x0000000000157f20                nsm_interface_range_sub_cmd
                0x0000000000157f3c                nsm_interface_shutdown_cmd
                0x0000000000157f58                no_nsm_interface_shutdown_cmd
                0x0000000000157f74                nsm_interface_linkdetect_cmd
                0x0000000000157f90                no_nsm_interface_linkdetect_cmd
                0x0000000000157fac                nsm_interface_multicast_cmd
                0x0000000000157fc8                no_nsm_interface_multicast_cmd
                0x0000000000157fe4                nsm_interface_bandwidth_cmd
                0x0000000000158000                no_nsm_interface_bandwidth_cmd
                0x000000000015801c                nsm_interface_mtu_cmd
                0x0000000000158038                no_nsm_interface_mtu_cmd
                0x0000000000158054                nsm_interface_metric_cmd
                0x0000000000158070                no_nsm_interface_metric_cmd
                0x000000000015808c                nsm_interface_duplex_cmd
                0x00000000001580a8                no_nsm_interface_duplex_cmd
                0x00000000001580c4                nsm_interface_mac_cmd
                0x00000000001580e0                no_nsm_interface_mac_cmd
                0x00000000001580fc                nsm_interface_speed_cmd
                0x0000000000158118                no_nsm_interface_speed_cmd
                0x0000000000158134                nsm_interface_enca_dot1q_cmd
                0x0000000000158150                nsm_interface_enca_ppp_cmd
                0x000000000015816c                nsm_interface_enca_pppoe_cmd
                0x0000000000158188                no_nsm_interface_enca_cmd
                0x00000000001581a4                nsm_interface_ip_address_cmd
                0x00000000001581c0                no_nsm_interface_ip_address_cmd
                0x00000000001581dc                nsm_interface_ipv6_address_cmd
                0x00000000001581f8                no_nsm_interface_ipv6_address_cmd
                0x0000000000158214                nsm_interface_set_kernel_cmd
                0x0000000000158230                no_nsm_interface_set_kernel_cmd
                0x000000000015824c                show_interface_kernel_cmd
                0x0000000000158268                show_interface_one_cmd
                0x0000000000158284                show_interface_brief_cmd
                0x00000000001582a0                show_interface_cmd
                0x00000000001582bc                show_interface_loopback_cmd
                0x00000000001582d8                show_interface_vlan_cmd
                0x00000000001582f4                show_interface_trunk_cmd
                0x0000000000158310                show_interface_all_debug_cmd
 .data          0x0000000000158494        0x0 /home/zhurish/workspace/working/zpl-source/source/debug/lib/libnsm.a(cmd_routerid.o)
 .data.rel.local
                0x0000000000158494       0x35 /home/zhurish/workspace/working/zpl-source/source/debug/lib/libnsm.a(cmd_routerid.o)
                0x0000000000158494                router_id_cmd
                0x00000000001584b0                no_router_id_cmd
 .data          0x00000000001584c9        0x0 /home/zhurish/workspace/working/zpl-source/source/debug/lib/libnsm.a(cmd_port.o)
 *fill*         0x00000000001584c9        0x3 
 .data.rel.local
                0x00000000001584cc       0x89 /home/zhurish/workspace/working/zpl-source/source/debug/lib/libnsm.a(cmd_port.o)
                0x00000000001584cc                nsm_interface_switchport_cmd
                0x00000000001584e8                no_nsm_interface_switchport_cmd
                0x0000000000158504                nsm_interface_switchport_mode_cmd
                0x0000000000158520                no_nsm_interface_switchport_mode_cmd
                0x000000000015853c                show_unit_board_info_cmd
 .data          0x0000000000158555        0x0 /home/zhurish/workspace/working/zpl-source/source/debug/lib/libnsm.a(cmd_route.o)
 *fill*         0x0000000000158555        0x3 
 .data.rel.local
                0x0000000000158558     0x170c /home/zhurish/workspace/working/zpl-source/source/debug/lib/libnsm.a(cmd_route.o)
                0x0000000000158558                ip_mroute_dist_cmd
                0x0000000000158574                ip_mroute_cmd
                0x0000000000158590                ip_mroute_dist_vrf_cmd
                0x00000000001585ac                ip_mroute_vrf_cmd
                0x00000000001585c8                no_ip_mroute_dist_cmd
                0x00000000001585e4                no_ip_mroute_cmd
                0x0000000000158600                no_ip_mroute_dist_vrf_cmd
                0x000000000015861c                no_ip_mroute_vrf_cmd
                0x0000000000158638                ip_multicast_mode_cmd
                0x0000000000158654                no_ip_multicast_mode_cmd
                0x0000000000158670                no_ip_multicast_mode_noarg_cmd
                0x000000000015868c                show_ip_rpf_cmd
                0x00000000001586a8                show_ip_rpf_vrf_cmd
                0x00000000001586c4                show_ip_rpf_addr_cmd
                0x00000000001586e0                show_ip_rpf_addr_vrf_cmd
                0x00000000001586fc                ip_route_cmd
                0x0000000000158718                ip_route_tag_cmd
                0x0000000000158734                ip_route_tag_vrf_cmd
                0x0000000000158750                ip_route_flags_cmd
                0x000000000015876c                ip_route_flags_tag_cmd
                0x0000000000158788                ip_route_flags_tag_vrf_cmd
                0x00000000001587a4                ip_route_flags2_cmd
                0x00000000001587c0                ip_route_flags2_tag_cmd
                0x00000000001587dc                ip_route_flags2_tag_vrf_cmd
                0x00000000001587f8                ip_route_mask_cmd
                0x0000000000158814                ip_route_mask_tag_cmd
                0x0000000000158830                ip_route_mask_tag_vrf_cmd
                0x000000000015884c                ip_route_mask_flags_cmd
                0x0000000000158868                ip_route_mask_flags_tag_cmd
                0x0000000000158884                ip_route_mask_flags_tag_vrf_cmd
                0x00000000001588a0                ip_route_mask_flags2_cmd
                0x00000000001588bc                ip_route_mask_flags2_tag_cmd
                0x00000000001588d8                ip_route_mask_flags2_tag_vrf_cmd
                0x00000000001588f4                ip_route_distance_cmd
                0x0000000000158910                ip_route_tag_distance_cmd
                0x000000000015892c                ip_route_tag_distance_vrf_cmd
                0x0000000000158948                ip_route_flags_distance_cmd
                0x0000000000158964                ip_route_flags_tag_distance_cmd
                0x0000000000158980                ip_route_flags_tag_distance_vrf_cmd
                0x000000000015899c                ip_route_flags_distance2_cmd
                0x00000000001589b8                ip_route_flags_tag_distance2_cmd
                0x00000000001589d4                ip_route_flags_tag_distance2_vrf_cmd
                0x00000000001589f0                ip_route_mask_distance_cmd
                0x0000000000158a0c                ip_route_mask_tag_distance_cmd
                0x0000000000158a28                ip_route_mask_tag_distance_vrf_cmd
                0x0000000000158a44                ip_route_mask_flags_tag_distance_cmd
                0x0000000000158a60                ip_route_mask_flags_tag_distance_vrf_cmd
                0x0000000000158a7c                ip_route_mask_flags_distance_cmd
                0x0000000000158a98                ip_route_mask_flags_distance2_cmd
                0x0000000000158ab4                ip_route_mask_flags_tag_distance2_cmd
                0x0000000000158ad0                ip_route_mask_flags_tag_distance2_vrf_cmd
                0x0000000000158aec                no_ip_route_cmd
                0x0000000000158b08                no_ip_route_tag_cmd
                0x0000000000158b24                no_ip_route_tag_vrf_cmd
                0x0000000000158b40                no_ip_route_flags_cmd
                0x0000000000158b5c                no_ip_route_flags_tag_cmd
                0x0000000000158b78                no_ip_route_flags2_cmd
                0x0000000000158b94                no_ip_route_flags2_tag_cmd
                0x0000000000158bb0                no_ip_route_flags2_tag_vrf_cmd
                0x0000000000158bcc                no_ip_route_mask_cmd
                0x0000000000158be8                no_ip_route_mask_tag_cmd
                0x0000000000158c04                no_ip_route_mask_flags_cmd
                0x0000000000158c20                no_ip_route_mask_flags_tag_cmd
                0x0000000000158c3c                no_ip_route_mask_flags2_cmd
                0x0000000000158c58                no_ip_route_mask_flags2_tag_cmd
                0x0000000000158c74                no_ip_route_mask_flags2_tag_vrf_cmd
                0x0000000000158c90                no_ip_route_distance_cmd
                0x0000000000158cac                no_ip_route_tag_distance_cmd
                0x0000000000158cc8                no_ip_route_tag_distance_vrf_cmd
                0x0000000000158ce4                no_ip_route_flags_distance_cmd
                0x0000000000158d00                no_ip_route_flags_tag_distance_cmd
                0x0000000000158d1c                no_ip_route_flags_tag_distance_vrf_cmd
                0x0000000000158d38                no_ip_route_flags_distance2_cmd
                0x0000000000158d54                no_ip_route_flags_tag_distance2_cmd
                0x0000000000158d70                no_ip_route_flags_tag_distance2_vrf_cmd
                0x0000000000158d8c                no_ip_route_mask_distance_cmd
                0x0000000000158da8                no_ip_route_mask_tag_distance_cmd
                0x0000000000158dc4                no_ip_route_mask_tag_distance_vrf_cmd
                0x0000000000158de0                no_ip_route_mask_flags_distance_cmd
                0x0000000000158dfc                no_ip_route_mask_flags_tag_distance_cmd
                0x0000000000158e18                no_ip_route_mask_flags_tag_distance_vrf_cmd
                0x0000000000158e34                no_ip_route_mask_flags_distance2_cmd
                0x0000000000158e50                ip_route_vrf_cmd
                0x0000000000158e6c                ip_route_flags_vrf_cmd
                0x0000000000158e88                ip_route_flags2_vrf_cmd
                0x0000000000158ea4                ip_route_mask_vrf_cmd
                0x0000000000158ec0                ip_route_mask_flags_vrf_cmd
                0x0000000000158edc                ip_route_mask_flags2_vrf_cmd
                0x0000000000158ef8                ip_route_distance_vrf_cmd
                0x0000000000158f14                ip_route_flags_distance_vrf_cmd
                0x0000000000158f30                ip_route_flags_distance2_vrf_cmd
                0x0000000000158f4c                ip_route_mask_distance_vrf_cmd
                0x0000000000158f68                ip_route_mask_flags_distance_vrf_cmd
                0x0000000000158f84                ip_route_mask_flags_distance2_vrf_cmd
                0x0000000000158fa0                no_ip_route_vrf_cmd
                0x0000000000158fbc                no_ip_route_flags_vrf_cmd
                0x0000000000158fd8                no_ip_route_flags2_vrf_cmd
                0x0000000000158ff4                no_ip_route_mask_vrf_cmd
                0x0000000000159010                no_ip_route_mask_flags_vrf_cmd
                0x000000000015902c                no_ip_route_mask_flags2_vrf_cmd
                0x0000000000159048                no_ip_route_distance_vrf_cmd
                0x0000000000159064                no_ip_route_flags_distance_vrf_cmd
                0x0000000000159080                no_ip_route_flags_distance2_vrf_cmd
                0x000000000015909c                no_ip_route_mask_distance_vrf_cmd
                0x00000000001590b8                no_ip_route_mask_flags_distance_vrf_cmd
                0x00000000001590d4                no_ip_route_mask_flags_distance2_vrf_cmd
                0x00000000001590f0                no_ip_route_mask_flags_tag_distance2_cmd
                0x000000000015910c                no_ip_route_mask_flags_tag_distance2_vrf_cmd
                0x0000000000159128                ip_protocol_cmd
                0x0000000000159144                no_ip_protocol_cmd
                0x0000000000159160                show_ip_route_cmd
                0x000000000015917c                show_ip_route_vrf_cmd
                0x0000000000159198                show_ip_route_tag_cmd
                0x00000000001591b4                show_ip_route_tag_vrf_cmd
                0x00000000001591d0                show_ip_route_prefix_longer_cmd
                0x00000000001591ec                show_ip_route_prefix_longer_vrf_cmd
                0x0000000000159208                show_ip_route_supernets_cmd
                0x0000000000159224                show_ip_route_supernets_vrf_cmd
                0x0000000000159240                show_ip_route_protocol_cmd
                0x000000000015925c                show_ip_route_protocol_vrf_cmd
                0x0000000000159278                show_ip_route_addr_cmd
                0x0000000000159294                show_ip_route_addr_vrf_cmd
                0x00000000001592b0                show_ip_route_prefix_cmd
                0x00000000001592cc                show_ip_route_prefix_vrf_cmd
                0x00000000001592e8                show_ip_route_summary_cmd
                0x0000000000159304                show_ip_route_summary_vrf_cmd
                0x0000000000159320                show_ip_route_summary_prefix_cmd
                0x000000000015933c                show_ip_route_summary_prefix_vrf_cmd
                0x0000000000159358                show_ip_protocol_cmd
                0x0000000000159374                ipv6_route_cmd
                0x0000000000159390                ipv6_route_tag_cmd
                0x00000000001593ac                ipv6_route_tag_vrf_cmd
                0x00000000001593c8                ipv6_route_flags_cmd
                0x00000000001593e4                ipv6_route_flags_tag_cmd
                0x0000000000159400                ipv6_route_flags_tag_vrf_cmd
                0x000000000015941c                ipv6_route_ifname_cmd
                0x0000000000159438                ipv6_route_ifname_tag_cmd
                0x0000000000159454                ipv6_route_ifname_tag_vrf_cmd
                0x0000000000159470                ipv6_route_ifname_flags_cmd
                0x000000000015948c                ipv6_route_ifname_flags_tag_cmd
                0x00000000001594a8                ipv6_route_ifname_flags_tag_vrf_cmd
                0x00000000001594c4                ipv6_route_pref_cmd
                0x00000000001594e0                ipv6_route_pref_tag_cmd
                0x00000000001594fc                ipv6_route_pref_tag_vrf_cmd
                0x0000000000159518                ipv6_route_flags_pref_cmd
                0x0000000000159534                ipv6_route_flags_pref_tag_cmd
                0x0000000000159550                ipv6_route_flags_pref_tag_vrf_cmd
                0x000000000015956c                ipv6_route_ifname_pref_cmd
                0x0000000000159588                ipv6_route_ifname_pref_tag_cmd
                0x00000000001595a4                ipv6_route_ifname_pref_tag_vrf_cmd
                0x00000000001595c0                ipv6_route_ifname_flags_pref_cmd
                0x00000000001595dc                ipv6_route_ifname_flags_pref_tag_cmd
                0x00000000001595f8                ipv6_route_ifname_flags_pref_tag_vrf_cmd
                0x0000000000159614                no_ipv6_route_cmd
                0x0000000000159630                no_ipv6_route_tag_cmd
                0x000000000015964c                no_ipv6_route_tag_vrf_cmd
                0x0000000000159668                no_ipv6_route_flags_cmd
                0x0000000000159684                no_ipv6_route_flags_tag_cmd
                0x00000000001596a0                no_ipv6_route_ifname_cmd
                0x00000000001596bc                no_ipv6_route_ifname_tag_cmd
                0x00000000001596d8                no_ipv6_route_ifname_tag_vrf_cmd
                0x00000000001596f4                no_ipv6_route_ifname_flags_cmd
                0x0000000000159710                no_ipv6_route_ifname_flags_tag_cmd
                0x000000000015972c                no_ipv6_route_pref_cmd
                0x0000000000159748                no_ipv6_route_pref_tag_cmd
                0x0000000000159764                no_ipv6_route_pref_tag_vrf_cmd
                0x0000000000159780                no_ipv6_route_flags_pref_cmd
                0x000000000015979c                no_ipv6_route_flags_pref_tag_cmd
                0x00000000001597b8                no_ipv6_route_flags_pref_tag_vrf_cmd
                0x00000000001597d4                no_ipv6_route_ifname_pref_cmd
                0x00000000001597f0                no_ipv6_route_ifname_pref_tag_cmd
                0x000000000015980c                no_ipv6_route_ifname_pref_tag_vrf_cmd
                0x0000000000159828                no_ipv6_route_ifname_flags_pref_cmd
                0x0000000000159844                no_ipv6_route_ifname_flags_pref_tag_cmd
                0x0000000000159860                no_ipv6_route_ifname_flags_pref_tag_vrf_cmd
                0x000000000015987c                ipv6_route_vrf_cmd
                0x0000000000159898                ipv6_route_flags_vrf_cmd
                0x00000000001598b4                ipv6_route_ifname_vrf_cmd
                0x00000000001598d0                ipv6_route_ifname_flags_vrf_cmd
                0x00000000001598ec                ipv6_route_pref_vrf_cmd
                0x0000000000159908                ipv6_route_flags_pref_vrf_cmd
                0x0000000000159924                ipv6_route_ifname_pref_vrf_cmd
                0x0000000000159940                ipv6_route_ifname_flags_pref_vrf_cmd
                0x000000000015995c                no_ipv6_route_vrf_cmd
                0x0000000000159978                no_ipv6_route_flags_vrf_cmd
                0x0000000000159994                no_ipv6_route_ifname_vrf_cmd
                0x00000000001599b0                no_ipv6_route_ifname_flags_vrf_cmd
                0x00000000001599cc                no_ipv6_route_pref_vrf_cmd
                0x00000000001599e8                no_ipv6_route_flags_pref_vrf_cmd
                0x0000000000159a04                no_ipv6_route_ifname_pref_vrf_cmd
                0x0000000000159a20                no_ipv6_route_ifname_flags_pref_vrf_cmd
                0x0000000000159a3c                show_ipv6_route_cmd
                0x0000000000159a58                show_ipv6_route_vrf_cmd
                0x0000000000159a74                show_ipv6_route_tag_cmd
                0x0000000000159a90                show_ipv6_route_tag_vrf_cmd
                0x0000000000159aac                show_ipv6_route_prefix_longer_cmd
                0x0000000000159ac8                show_ipv6_route_prefix_longer_vrf_cmd
                0x0000000000159ae4                show_ipv6_route_protocol_cmd
                0x0000000000159b00                show_ipv6_route_protocol_vrf_cmd
                0x0000000000159b1c                show_ipv6_route_addr_cmd
                0x0000000000159b38                show_ipv6_route_addr_vrf_cmd
                0x0000000000159b54                show_ipv6_route_prefix_cmd
                0x0000000000159b70                show_ipv6_route_prefix_vrf_cmd
                0x0000000000159b8c                show_ipv6_route_summary_cmd
                0x0000000000159ba8                show_ipv6_route_summary_vrf_cmd
                0x0000000000159bc4                show_ipv6_route_summary_prefix_cmd
                0x0000000000159be0                show_ipv6_route_summary_prefix_vrf_cmd
                0x0000000000159bfc                show_ipv6_mroute_cmd
                0x0000000000159c18                show_ipv6_mroute_vrf_cmd
 .data          0x0000000000159c64       0x10 /home/zhurish/workspace/working/zpl-source/source/debug/lib/libnsm.a(cmd_dot1x.o)
 .data.rel.local
                0x0000000000159c74      0x329 /home/zhurish/workspace/working/zpl-source/source/debug/lib/libnsm.a(cmd_dot1x.o)
                0x0000000000159c74                dot1x_system_auth_ctrl_cmd
                0x0000000000159c90                no_dot1x_system_auth_ctrl_cmd
                0x0000000000159cac                dot1x_port_control_cmd
                0x0000000000159cc8                no_dot1x_port_control_cmd
                0x0000000000159ce4                dot1x_initialize_cmd
                0x0000000000159d00                dot1x_max_req_cmd
                0x0000000000159d1c                no_dot1x_max_req_cmd
                0x0000000000159d38                dot1x_protocol_version_cmd
                0x0000000000159d54                no_dot1x_protocol_version_cmd
                0x0000000000159d70                dot1x_reauthentication_cmd
                0x0000000000159d8c                no_dot1x_reauthentication_cmd
                0x0000000000159da8                dot1x_guest_vlan_cmd
                0x0000000000159dc4                no_dot1x_guest_vlan_cmd
                0x0000000000159de0                dot1x_mac_auth_bypass_cmd
                0x0000000000159dfc                no_dot1x_mac_auth_bypass_cmd
                0x0000000000159e18                dot1x_port_mode_cmd
                0x0000000000159e34                no_dot1x_port_mode_cmd
                0x0000000000159e50                dot1x_max_user_cmd
                0x0000000000159e6c                no_dot1x_max_user_cmd
                0x0000000000159e88                dot1x_timeout_re_auth_cmd
                0x0000000000159ea4                no_dot1x_timeout_re_auth_cmd
                0x0000000000159ec0                dot1x_timeout_server_timeout_cmd
                0x0000000000159edc                no_dot1x_timeout_server_timeout_cmd
                0x0000000000159ef8                dot1x_timeout_supp_timeout_cmd
                0x0000000000159f14                no_dot1x_timeout_supp_timeout_cmd
                0x0000000000159f30                dot1x_timeout_tx_period_cmd
                0x0000000000159f4c                no_dot1x_timeout_tx_period_cmd
                0x0000000000159f68                dot1x_timeout_quiet_period_cmd
                0x0000000000159f84                no_dot1x_timeout_quiet_period_cmd
 .data          0x0000000000159f9d        0x0 /home/zhurish/workspace/working/zpl-source/source/debug/lib/libnsm.a(cmd_arp.o)
 *fill*         0x0000000000159f9d        0x3 
 .data.rel.local
                0x0000000000159fa0      0x210 /home/zhurish/workspace/working/zpl-source/source/debug/lib/libnsm.a(cmd_arp.o)
                0x0000000000159fa0                ip_arp_retry_interval_cmd
                0x0000000000159fbc                no_ip_arp_retry_interval_cmd
                0x0000000000159fd8                ip_arp_timeout_cmd
                0x0000000000159ff4                no_ip_arp_timeout_cmd
                0x000000000015a010                ip_arp_proxy_cmd
                0x000000000015a02c                no_ip_arp_proxy_cmd
                0x000000000015a048                ip_arp_proxy_local_cmd
                0x000000000015a064                no_ip_arp_proxy_local_cmd
                0x000000000015a080                ip_arp_add_cmd
                0x000000000015a09c                ip_arp_add_interface_cmd
                0x000000000015a0b8                no_ip_arp_add_cmd
                0x000000000015a0d4                no_ip_arp_add_interface_cmd
                0x000000000015a0f0                clear_ip_arp_cmd
                0x000000000015a10c                clear_ip_arp_address_cmd
                0x000000000015a128                clear_ip_arp_interface_cmd
                0x000000000015a144                show_ip_arp_cmd
                0x000000000015a160                show_ip_arp_detail_cmd
                0x000000000015a17c                show_ip_arp_interface_cmd
 .data          0x000000000015a1b0        0x0 /home/zhurish/workspace/working/zpl-source/source/debug/lib/libnsm.a(cmd_bridge.o)
 .data.rel.local
                0x000000000015a1b0      0x115 /home/zhurish/workspace/working/zpl-source/source/debug/lib/libnsm.a(cmd_bridge.o)
                0x000000000015a1b0                bridge_add_interface_cmd
                0x000000000015a1cc                no_bridge_add_interface_cmd
                0x000000000015a1e8                bridge_protocol_ieee_cmd
                0x000000000015a204                no_bridge_protocol_ieee_cmd
                0x000000000015a220                ieee_age_time_cmd
                0x000000000015a23c                no_ieee_age_time_cmd
                0x000000000015a258                ieee_hello_time_cmd
                0x000000000015a274                no_ieee_hello_time_cmd
                0x000000000015a290                ieee_forward_time_cmd
                0x000000000015a2ac                no_ieee_forward_time_cmd
 .data          0x000000000015a2c5        0x0 /home/zhurish/workspace/working/zpl-source/source/debug/lib/libnsm.a(cmd_dns.o)
 *fill*         0x000000000015a2c5        0x3 
 .data.rel.local
                0x000000000015a2c8       0xf8 /home/zhurish/workspace/working/zpl-source/source/debug/lib/libnsm.a(cmd_dns.o)
                0x000000000015a2c8                ip_dns_server_add_cmd
                0x000000000015a2e4                ip_dns_server_add_secondary_cmd
                0x000000000015a300                no_ip_dns_server_add_cmd
                0x000000000015a31c                ip_host_add_cmd
                0x000000000015a338                no_ip_host_add_cmd
                0x000000000015a354                debug_dns_set_cmd
                0x000000000015a370                no_debug_dns_set_cmd
                0x000000000015a38c                show_dns_server_cmd
 .data          0x000000000015a3c0        0x0 /home/zhurish/workspace/working/zpl-source/source/debug/lib/libnsm.a(cmd_dos.o)
 .data.rel.local
                0x000000000015a3c0      0x1f5 /home/zhurish/workspace/working/zpl-source/source/debug/lib/libnsm.a(cmd_dos.o)
                0x000000000015a3c0                dos_icmp_long_ping_enable_cmd
                0x000000000015a3dc                no_dos_icmp_long_ping_enable_cmd
                0x000000000015a3f8                dos_frag_ment_enable_cmd
                0x000000000015a414                no_dos_frag_ment_enable_cmd
                0x000000000015a430                dos_frag_error_enable_cmd
                0x000000000015a44c                no_dos_frag_error_enable_cmd
                0x000000000015a468                dozpl_zpl_int16_hdr_enable_cmd
                0x000000000015a484                no_dozpl_zpl_int16_hdr_enable_cmd
                0x000000000015a4a0                dos_tcp_enable_cmd
                0x000000000015a4bc                no_dos_tcp_enable_cmd
                0x000000000015a4d8                dos_blat_enable_cmd
                0x000000000015a4f4                no_dos_blat_enable_cmd
                0x000000000015a510                dos_lan_drip_enable_cmd
                0x000000000015a52c                no_dos_lan_drip_enable_cmd
                0x000000000015a548                dos_icmp_size_enable_cmd
                0x000000000015a564                no_dos_icmp_size_enable_cmd
                0x000000000015a580                dos_tcp_hdr_size_enable_cmd
                0x000000000015a59c                no_dos_tcp_hdr_size_enable_cmd
 .data          0x000000000015a5b5        0x0 /home/zhurish/workspace/working/zpl-source/source/debug/lib/libnsm.a(cmd_mac.o)
 *fill*         0x000000000015a5b5        0x3 
 .data.rel.local
                0x000000000015a5b8      0x131 /home/zhurish/workspace/working/zpl-source/source/debug/lib/libnsm.a(cmd_mac.o)
                0x000000000015a5b8                mac_address_table_ageing_time_cmd
                0x000000000015a5d4                no_mac_address_table_ageing_time_cmd
                0x000000000015a5f0                mac_address_table_cmd
                0x000000000015a60c                no_mac_address_table_cmd
                0x000000000015a628                mac_address_table_discard_cmd
                0x000000000015a644                no_mac_address_table_discard_cmd
                0x000000000015a660                clear_mac_address_table_cmd
                0x000000000015a67c                clear_mac_address_table_address_cmd
                0x000000000015a698                clear_mac_address_table_interface_cmd
                0x000000000015a6b4                show_mac_address_table_cmd
                0x000000000015a6d0                show_mac_address_table_value_cmd
 .data          0x000000000015a6e9        0x0 /home/zhurish/workspace/working/zpl-source/source/debug/lib/libnsm.a(cmd_vlan.o)
 *fill*         0x000000000015a6e9        0x3 
 .data.rel.local
                0x000000000015a6ec      0x2b4 /home/zhurish/workspace/working/zpl-source/source/debug/lib/libnsm.a(cmd_vlan.o)
                0x000000000015a6ec                vlan_database_cmd
                0x000000000015a708                vlan_add_cmd
                0x000000000015a724                vlan_add_list_cmd
                0x000000000015a740                no_vlan_add_cmd
                0x000000000015a75c                no_vlan_add_list_cmd
                0x000000000015a778                vlan_id_cmd
                0x000000000015a794                no_vlan_id_cmd
                0x000000000015a7b0                vlan_name_cmd
                0x000000000015a7cc                no_vlan_name_cmd
                0x000000000015a7e8                vlan_add_interface_cmd
                0x000000000015a804                vlan_add_interface_trunk_cmd
                0x000000000015a820                no_vlan_add_interface_cmd
                0x000000000015a83c                no_vlan_add_interface_trunk_cmd
                0x000000000015a858                switchport_access_vlan_cmd
                0x000000000015a874                no_switchport_access_vlan_cmd
                0x000000000015a890                switchport_trunk_vlan_cmd
                0x000000000015a8ac                no_switchport_trunk_vlan_cmd
                0x000000000015a8c8                switchport_trunk_allow_vlan_cmd
                0x000000000015a8e4                switchport_trunk_allow_vlan_all_cmd
                0x000000000015a900                switchport_trunk_allow_vlan_list_cmd
                0x000000000015a91c                show_vlan_brief_cmd
                0x000000000015a938                show_vlan_id_cmd
                0x000000000015a954                show_vlan_name_cmd
 .data          0x000000000015a9a0        0x0 /home/zhurish/workspace/working/zpl-source/source/debug/lib/libnsm.a(cmd_qos.o)
 .data.rel.local
                0x000000000015a9a0      0x495 /home/zhurish/workspace/working/zpl-source/source/debug/lib/libnsm.a(cmd_qos.o)
                0x000000000015a9a0                qos_global_control_cmd
                0x000000000015a9bc                no_qos_global_control_cmd
                0x000000000015a9d8                qos_global_shaping_control_cmd
                0x000000000015a9f4                no_qos_global_shaping_control_cmd
                0x000000000015aa10                qos_storm_control_cmd
                0x000000000015aa2c                qos_storm_control_percent_cmd
                0x000000000015aa48                qos_storm_control_packet_cmd
                0x000000000015aa64                no_qos_storm_control_cmd
                0x000000000015aa80                qos_queue_map_class_cmd
                0x000000000015aa9c                no_qos_queue_map_class_cmd
                0x000000000015aab8                qos_queue_class_sched_cmd
                0x000000000015aad4                qos_queue_class_sched_weight_cmd
                0x000000000015aaf0                no_qos_queue_class_sched_cmd
                0x000000000015ab0c                qos_trust_type_cmd
                0x000000000015ab28                no_qos_trust_type_cmd
                0x000000000015ab44                qos_queue_sched_mode_sp_cmd
                0x000000000015ab60                no_qos_queue_sched_mode_sp_cmd
                0x000000000015ab7c                qos_queue_sched_mode_weight_cmd
                0x000000000015ab98                no_qos_queue_sched_mode_weight_cmd
                0x000000000015abb4                qos_inside_priority_queue_map_cmd
                0x000000000015abd0                no_qos_inside_priority_queue_map_cmd
                0x000000000015abec                qos_cos_priority_priority_map_cmd
                0x000000000015ac08                no_qos_cos_priority_priority_map_cmd
                0x000000000015ac24                qos_exp_priority_priority_map_cmd
                0x000000000015ac40                no_qos_exp_priority_priority_map_cmd
                0x000000000015ac5c                qos_ippre_priority_priority_map_cmd
                0x000000000015ac78                no_qos_ippre_priority_priority_map_cmd
                0x000000000015ac94                qos_dscp_priority_priority_map_cmd
                0x000000000015acb0                no_qos_dscp_priority_priority_map_cmd
                0x000000000015accc                qos_cos_priority_replace_cmd
                0x000000000015ace8                no_qos_cos_priority_replace_cmd
                0x000000000015ad04                qos_dscp_priority_replace_cmd
                0x000000000015ad20                no_qos_dscp_priority_replace_cmd
                0x000000000015ad3c                qos_service_policy_cmd
                0x000000000015ad58                no_qos_service_policy_cmd
                0x000000000015ad74                qos_policer_cir_cmd
                0x000000000015ad90                qos_policer_cir_pir_cmd
                0x000000000015adac                qos_policer_cir_pir_cbs_cmd
                0x000000000015adc8                no_qos_policer_cir_cmd
                0x000000000015ade4                qos_shaping_cmd
                0x000000000015ae00                no_qos_shaping_cmd
                0x000000000015ae1c                show_qos_interface_info_cmd
 .data          0x000000000015ae35        0x0 /home/zhurish/workspace/working/zpl-source/source/debug/lib/libnsm.a(cmd_qos_acl.o)
 *fill*         0x000000000015ae35        0x3 
 .data.rel.local
                0x000000000015ae38     0x149c /home/zhurish/workspace/working/zpl-source/source/debug/lib/libnsm.a(cmd_qos_acl.o)
                0x000000000015ae38                qos_access_list_ip_srcany_cmd
                0x000000000015ae54                qos_access_list_ip_dstany_cmd
                0x000000000015ae70                qos_access_list_ip_proany_cmd
                0x000000000015ae8c                qos_access_list_ip_protocol_cmd
                0x000000000015aea8                no_qos_access_list_ip_protocol_cmd
                0x000000000015aec4                no_qos_access_list_ip_tcpudp_cmd
                0x000000000015aee0                no_qos_access_list_ip_tcpudp_name_cmd
                0x000000000015aefc                qos_access_list_ip_tcpudp_cmd
                0x000000000015af18                qos_access_list_ip_tcpudp_srcport_cmd
                0x000000000015af34                qos_access_list_ip_tcpudp_srcport_range_cmd
                0x000000000015af50                qos_access_list_ip_tcpudp_srcport_ng_cmd
                0x000000000015af6c                qos_access_list_ip_tcpudp_dstport_cmd
                0x000000000015af88                qos_access_list_ip_tcpudp_dstport_range_cmd
                0x000000000015afa4                qos_access_list_ip_tcpudp_dstport_ng_cmd
                0x000000000015afc0                qos_access_list_ip_tcpudp_srcport_dstport_cmd
                0x000000000015afdc                qos_access_list_ip_tcpudp_srcport_dstport_range_cmd
                0x000000000015aff8                qos_access_list_ip_tcpudp_srcport_dstport_ng_cmd
                0x000000000015b014                qos_access_list_ip_tcpudp_srcport_range_dstport_cmd
                0x000000000015b030                qos_access_list_ip_tcpudp_srcport_range_dstport_range_cmd
                0x000000000015b04c                qos_access_list_ip_tcpudp_srcport_range_dstport_ng_cmd
                0x000000000015b068                qos_access_list_ip_tcpudp_srcport_ng_dstport_cmd
                0x000000000015b084                qos_access_list_ip_tcpudp_srcport_ng_dstport_range_cmd
                0x000000000015b0a0                qos_access_list_ip_tcpudp_srcport_ng_dstport_ng_cmd
                0x000000000015b0bc                qos_access_list_ipv6_srcany_cmd
                0x000000000015b0d8                qos_access_list_ipv6_dstany_cmd
                0x000000000015b0f4                qos_access_list_ipv6_proany_cmd
                0x000000000015b110                qos_access_list_ipv6_protocol_cmd
                0x000000000015b12c                no_qos_access_list_ipv6_protocol_cmd
                0x000000000015b148                no_qos_access_list_ipv6_tcpudp_cmd
                0x000000000015b164                no_qos_access_list_ipv6_tcpudp_name_cmd
                0x000000000015b180                qos_access_list_ipv6_tcpudp_cmd
                0x000000000015b19c                qos_access_list_ipv6_tcpudp_srcport_cmd
                0x000000000015b1b8                qos_access_list_ipv6_tcpudp_srcport_range_cmd
                0x000000000015b1d4                qos_access_list_ipv6_tcpudp_srcport_ng_cmd
                0x000000000015b1f0                qos_access_list_ipv6_tcpudp_dstport_cmd
                0x000000000015b20c                qos_access_list_ipv6_tcpudp_dstport_range_cmd
                0x000000000015b228                qos_access_list_ipv6_tcpudp_dstport_ng_cmd
                0x000000000015b244                qos_access_list_ipv6_tcpudp_srcport_dstport_cmd
                0x000000000015b260                qos_access_list_ipv6_tcpudp_srcport_dstport_range_cmd
                0x000000000015b27c                qos_access_list_ipv6_tcpudp_srcport_dstport_ng_cmd
                0x000000000015b298                qos_access_list_ipv6_tcpudp_srcport_range_dstport_cmd
                0x000000000015b2b4                qos_access_list_ipv6_tcpudp_srcport_range_dstport_range_cmd
                0x000000000015b2d0                qos_access_list_ipv6_tcpudp_srcport_range_dstport_ng_cmd
                0x000000000015b2ec                qos_access_list_ipv6_tcpudp_srcport_ng_dstport_cmd
                0x000000000015b308                qos_access_list_ipv6_tcpudp_srcport_ng_dstport_range_cmd
                0x000000000015b324                qos_access_list_ipv6_tcpudp_srcport_ng_dstport_ng_cmd
                0x000000000015b340                qos_mac_access_list_src_mac_any_cmd
                0x000000000015b35c                qos_mac_access_list_src_mac_any_dstany_cmd
                0x000000000015b378                qos_mac_access_list_src_mac_any_dstany_vlan_cmd
                0x000000000015b394                qos_mac_access_list_src_mac_any_dstany_vlan_cos_cmd
                0x000000000015b3b0                qos_mac_access_list_src_mac_any_dstany_vlan_cos_type_cmd
                0x000000000015b3cc                qos_mac_access_list_src_mac_any_dstmask_cmd
                0x000000000015b3e8                qos_mac_access_list_src_mac_any_dstmask_vlan_cmd
                0x000000000015b404                qos_mac_access_list_src_mac_any_dstmask_vlan_cos_cmd
                0x000000000015b420                qos_mac_access_list_src_mac_any_dstmask_vlan_cos_type_cmd
                0x000000000015b43c                qos_mac_access_list_src_mac_any_dsthost_cmd
                0x000000000015b458                qos_mac_access_list_src_mac_any_dsthost_vlan_cmd
                0x000000000015b474                qos_mac_access_list_src_mac_any_dsthost_vlan_cos_cmd
                0x000000000015b490                qos_mac_access_list_src_mac_any_dsthost_vlan_cos_type_cmd
                0x000000000015b4ac                qos_mac_access_list_src_mac_mask_cmd
                0x000000000015b4c8                qos_mac_access_list_src_mac_mask_dstany_cmd
                0x000000000015b4e4                qos_mac_access_list_src_mac_mask_dstany_vlan_cmd
                0x000000000015b500                qos_mac_access_list_src_mac_mask_dstany_vlan_cos_cmd
                0x000000000015b51c                qos_mac_access_list_src_mac_mask_dstany_vlan_cos_type_cmd
                0x000000000015b538                qos_mac_access_list_src_mac_mask_dstmask_cmd
                0x000000000015b554                qos_mac_access_list_src_mac_mask_dstmask_vlan_cmd
                0x000000000015b570                qos_mac_access_list_src_mac_mask_dstmask_vlan_cos_cmd
                0x000000000015b58c                qos_mac_access_list_src_mac_mask_dstmask_vlan_cos_type_cmd
                0x000000000015b5a8                qos_mac_access_list_src_mac_mask_dsthost_cmd
                0x000000000015b5c4                qos_mac_access_list_src_mac_mask_dsthost_vlan_cmd
                0x000000000015b5e0                qos_mac_access_list_src_mac_mask_dsthost_vlan_cos_cmd
                0x000000000015b5fc                qos_mac_access_list_src_mac_mask_dsthost_vlan_cos_type_cmd
                0x000000000015b618                qos_mac_access_list_src_mac_host_cmd
                0x000000000015b634                qos_mac_access_list_src_mac_host_dstany_cmd
                0x000000000015b650                qos_mac_access_list_src_mac_host_dstany_vlan_cmd
                0x000000000015b66c                qos_mac_access_list_src_mac_host_dstany_vlan_cos_cmd
                0x000000000015b688                qos_mac_access_list_src_mac_host_dstany_vlan_cos_type_cmd
                0x000000000015b6a4                qos_mac_access_list_src_mac_host_dstmask_cmd
                0x000000000015b6c0                qos_mac_access_list_src_mac_host_dstmask_vlan_cmd
                0x000000000015b6dc                qos_mac_access_list_src_mac_host_dstmask_vlan_cos_cmd
                0x000000000015b6f8                qos_mac_access_list_src_mac_host_dstmask_vlan_cos_type_cmd
                0x000000000015b714                qos_mac_access_list_src_mac_host_dsthost_cmd
                0x000000000015b730                qos_mac_access_list_src_mac_host_dsthost_vlan_cmd
                0x000000000015b74c                qos_mac_access_list_src_mac_host_dsthost_vlan_cos_cmd
                0x000000000015b768                qos_mac_access_list_src_mac_host_dsthost_vlan_cos_type_cmd
                0x000000000015b784                noseq_qos_access_list_ip_srcany_cmd
                0x000000000015b7a0                noseq_qos_access_list_ip_dstany_cmd
                0x000000000015b7bc                noseq_qos_access_list_ip_proany_cmd
                0x000000000015b7d8                noseq_qos_access_list_ip_protocol_cmd
                0x000000000015b7f4                no_noseq_qos_access_list_ip_protocol_cmd
                0x000000000015b810                no_noseq_qos_access_list_ip_tcpudp_cmd
                0x000000000015b82c                no_noseq_qos_access_list_ip_tcpudp_name_cmd
                0x000000000015b848                noseq_qos_access_list_ip_tcpudp_cmd
                0x000000000015b864                noseq_qos_access_list_ip_tcpudp_srcport_cmd
                0x000000000015b880                noseq_qos_access_list_ip_tcpudp_srcport_range_cmd
                0x000000000015b89c                noseq_qos_access_list_ip_tcpudp_srcport_ng_cmd
                0x000000000015b8b8                noseq_qos_access_list_ip_tcpudp_dstport_cmd
                0x000000000015b8d4                noseq_qos_access_list_ip_tcpudp_dstport_range_cmd
                0x000000000015b8f0                noseq_qos_access_list_ip_tcpudp_dstport_ng_cmd
                0x000000000015b90c                noseq_qos_access_list_ip_tcpudp_srcport_dstport_cmd
                0x000000000015b928                noseq_qos_access_list_ip_tcpudp_srcport_dstport_range_cmd
                0x000000000015b944                noseq_qos_access_list_ip_tcpudp_srcport_dstport_ng_cmd
                0x000000000015b960                noseq_qos_access_list_ip_tcpudp_srcport_range_dstport_cmd
                0x000000000015b97c                noseq_qos_access_list_ip_tcpudp_srcport_range_dstport_range_cmd
                0x000000000015b998                noseq_qos_access_list_ip_tcpudp_srcport_range_dstport_ng_cmd
                0x000000000015b9b4                noseq_qos_access_list_ip_tcpudp_srcport_ng_dstport_cmd
                0x000000000015b9d0                noseq_qos_access_list_ip_tcpudp_srcport_ng_dstport_range_cmd
                0x000000000015b9ec                noseq_qos_access_list_ip_tcpudp_srcport_ng_dstport_ng_cmd
                0x000000000015ba08                noseq_qos_access_list_ipv6_srcany_cmd
                0x000000000015ba24                noseq_qos_access_list_ipv6_dstany_cmd
                0x000000000015ba40                noseq_qos_access_list_ipv6_proany_cmd
                0x000000000015ba5c                noseq_qos_access_list_ipv6_protocol_cmd
                0x000000000015ba78                no_noseq_qos_access_list_ipv6_protocol_cmd
                0x000000000015ba94                no_noseq_qos_access_list_ipv6_tcpudp_cmd
                0x000000000015bab0                no_noseq_qos_access_list_ipv6_tcpudp_name_cmd
                0x000000000015bacc                noseq_qos_access_list_ipv6_tcpudp_cmd
                0x000000000015bae8                noseq_qos_access_list_ipv6_tcpudp_srcport_cmd
                0x000000000015bb04                noseq_qos_access_list_ipv6_tcpudp_srcport_range_cmd
                0x000000000015bb20                noseq_qos_access_list_ipv6_tcpudp_srcport_ng_cmd
                0x000000000015bb3c                noseq_qos_access_list_ipv6_tcpudp_dstport_cmd
                0x000000000015bb58                noseq_qos_access_list_ipv6_tcpudp_dstport_range_cmd
                0x000000000015bb74                noseq_qos_access_list_ipv6_tcpudp_dstport_ng_cmd
                0x000000000015bb90                noseq_qos_access_list_ipv6_tcpudp_srcport_dstport_cmd
                0x000000000015bbac                noseq_qos_access_list_ipv6_tcpudp_srcport_dstport_range_cmd
                0x000000000015bbc8                noseq_qos_access_list_ipv6_tcpudp_srcport_dstport_ng_cmd
                0x000000000015bbe4                noseq_qos_access_list_ipv6_tcpudp_srcport_range_dstport_cmd
                0x000000000015bc00                noseq_qos_access_list_ipv6_tcpudp_srcport_range_dstport_range_cmd
                0x000000000015bc1c                noseq_qos_access_list_ipv6_tcpudp_srcport_range_dstport_ng_cmd
                0x000000000015bc38                noseq_qos_access_list_ipv6_tcpudp_srcport_ng_dstport_cmd
                0x000000000015bc54                noseq_qos_access_list_ipv6_tcpudp_srcport_ng_dstport_range_cmd
                0x000000000015bc70                noseq_qos_access_list_ipv6_tcpudp_srcport_ng_dstport_ng_cmd
                0x000000000015bc8c                noseq_qos_mac_access_list_src_mac_any_cmd
                0x000000000015bca8                noseq_qos_mac_access_list_src_mac_any_dstany_cmd
                0x000000000015bcc4                noseq_qos_mac_access_list_src_mac_any_dstany_vlan_cmd
                0x000000000015bce0                noseq_qos_mac_access_list_src_mac_any_dstany_vlan_cos_cmd
                0x000000000015bcfc                noseq_qos_mac_access_list_src_mac_any_dstany_vlan_cos_type_cmd
                0x000000000015bd18                noseq_qos_mac_access_list_src_mac_any_dstmask_cmd
                0x000000000015bd34                noseq_qos_mac_access_list_src_mac_any_dstmask_vlan_cmd
                0x000000000015bd50                noseq_qos_mac_access_list_src_mac_any_dstmask_vlan_cos_cmd
                0x000000000015bd6c                noseq_qos_mac_access_list_src_mac_any_dstmask_vlan_cos_type_cmd
                0x000000000015bd88                noseq_qos_mac_access_list_src_mac_any_dsthost_cmd
                0x000000000015bda4                noseq_qos_mac_access_list_src_mac_any_dsthost_vlan_cmd
                0x000000000015bdc0                noseq_qos_mac_access_list_src_mac_any_dsthost_vlan_cos_cmd
                0x000000000015bddc                noseq_qos_mac_access_list_src_mac_any_dsthost_vlan_cos_type_cmd
                0x000000000015bdf8                noseq_qos_mac_access_list_src_mac_mask_cmd
                0x000000000015be14                noseq_qos_mac_access_list_src_mac_mask_dstany_cmd
                0x000000000015be30                noseq_qos_mac_access_list_src_mac_mask_dstany_vlan_cmd
                0x000000000015be4c                noseq_qos_mac_access_list_src_mac_mask_dstany_vlan_cos_cmd
                0x000000000015be68                noseq_qos_mac_access_list_src_mac_mask_dstany_vlan_cos_type_cmd
                0x000000000015be84                noseq_qos_mac_access_list_src_mac_mask_dstmask_cmd
                0x000000000015bea0                noseq_qos_mac_access_list_src_mac_mask_dstmask_vlan_cmd
                0x000000000015bebc                noseq_qos_mac_access_list_src_mac_mask_dstmask_vlan_cos_cmd
                0x000000000015bed8                noseq_qos_mac_access_list_src_mac_mask_dstmask_vlan_cos_type_cmd
                0x000000000015bef4                noseq_qos_mac_access_list_src_mac_mask_dsthost_cmd
                0x000000000015bf10                noseq_qos_mac_access_list_src_mac_mask_dsthost_vlan_cmd
                0x000000000015bf2c                noseq_qos_mac_access_list_src_mac_mask_dsthost_vlan_cos_cmd
                0x000000000015bf48                noseq_qos_mac_access_list_src_mac_mask_dsthost_vlan_cos_type_cmd
                0x000000000015bf64                noseq_qos_mac_access_list_src_mac_host_cmd
                0x000000000015bf80                noseq_qos_mac_access_list_src_mac_host_dstany_cmd
                0x000000000015bf9c                noseq_qos_mac_access_list_src_mac_host_dstany_vlan_cmd
                0x000000000015bfb8                noseq_qos_mac_access_list_src_mac_host_dstany_vlan_cos_cmd
                0x000000000015bfd4                noseq_qos_mac_access_list_src_mac_host_dstany_vlan_cos_type_cmd
                0x000000000015bff0                noseq_qos_mac_access_list_src_mac_host_dstmask_cmd
                0x000000000015c00c                noseq_qos_mac_access_list_src_mac_host_dstmask_vlan_cmd
                0x000000000015c028                noseq_qos_mac_access_list_src_mac_host_dstmask_vlan_cos_cmd
                0x000000000015c044                noseq_qos_mac_access_list_src_mac_host_dstmask_vlan_cos_type_cmd
                0x000000000015c060                noseq_qos_mac_access_list_src_mac_host_dsthost_cmd
                0x000000000015c07c                noseq_qos_mac_access_list_src_mac_host_dsthost_vlan_cmd
                0x000000000015c098                noseq_qos_mac_access_list_src_mac_host_dsthost_vlan_cos_cmd
                0x000000000015c0b4                noseq_qos_mac_access_list_src_mac_host_dsthost_vlan_cos_type_cmd
                0x000000000015c0d0                qos_access_list_name_cmd
                0x000000000015c0ec                no_qos_access_list_name_cmd
                0x000000000015c108                qos_class_map_match_cmd
                0x000000000015c124                qos_class_map_match_any_cmd
                0x000000000015c140                no_qos_class_map_match_cmd
                0x000000000015c15c                qos_class_map_match_access_cmd
                0x000000000015c178                no_qos_class_map_match_access_cmd
                0x000000000015c194                qos_class_map_cir_cmd
                0x000000000015c1b0                qos_class_map_cir_pir_cmd
                0x000000000015c1cc                qos_class_map_cir_pir_cbs_cmd
                0x000000000015c1e8                no_qos_class_map_cir_cmd
                0x000000000015c204                qos_service_policy_match_cmd
                0x000000000015c220                no_qos_service_policy_match_cmd
                0x000000000015c23c                qos_service_policy_class_match_cmd
                0x000000000015c258                no_qos_service_policy_class_match_cmd
 .data          0x000000000015c2d4        0x0 /home/zhurish/workspace/working/zpl-source/source/debug/lib/libnsm.a(cmd_trunk.o)
 .data.rel.local
                0x000000000015c2d4      0x14d /home/zhurish/workspace/working/zpl-source/source/debug/lib/libnsm.a(cmd_trunk.o)
                0x000000000015c2d4                channel_group_cmd
                0x000000000015c2f0                channel_group_static_cmd
                0x000000000015c30c                no_channel_group_static_cmd
                0x000000000015c328                no_channel_group_cmd
                0x000000000015c344                lacp_port_priority_cmd
                0x000000000015c360                no_lacp_port_priority_cmd
                0x000000000015c37c                lacp_system_priority_cmd
                0x000000000015c398                no_lacp_system_priority_cmd
                0x000000000015c3b4                lacp_timeout_cmd
                0x000000000015c3d0                no_lacp_timeout_cmd
                0x000000000015c3ec                port_channel_load_balance_cmd
                0x000000000015c408                no_port_channel_load_balance_cmd
 .data          0x000000000015c421        0x0 /home/zhurish/workspace/working/zpl-source/source/debug/lib/libnsm.a(cmd_mirror.o)
 *fill*         0x000000000015c421        0x3 
 .data.rel.local
                0x000000000015c424       0xa5 /home/zhurish/workspace/working/zpl-source/source/debug/lib/libnsm.a(cmd_mirror.o)
                0x000000000015c424                monitor_session_source_cmd
                0x000000000015c440                monitor_session_source_both_cmd
                0x000000000015c45c                no_monitor_session_source_cmd
                0x000000000015c478                monitor_session_source_filter_cmd
                0x000000000015c494                monitor_session_destination_cmd
                0x000000000015c4b0                no_monitor_session_destination_cmd
 .data          0x000000000015c4c9        0x0 /home/zhurish/workspace/working/zpl-source/source/debug/lib/libnsm.a(cmd_tunnel.o)
 *fill*         0x000000000015c4c9        0x3 
 .data.rel.local
                0x000000000015c4cc      0x14d /home/zhurish/workspace/working/zpl-source/source/debug/lib/libnsm.a(cmd_tunnel.o)
                0x000000000015c4cc                nsm_tunnel_protocol_cmd
                0x000000000015c4e8                no_nsm_tunnel_protocol_cmd
                0x000000000015c504                nsm_tunnel_tos_cmd
                0x000000000015c520                no_nsm_tunnel_tos_cmd
                0x000000000015c53c                nsm_tunnel_ttl_cmd
                0x000000000015c558                no_nsm_tunnel_ttl_cmd
                0x000000000015c574                nsm_tunnel_mtu_cmd
                0x000000000015c590                no_nsm_tunnel_mtu_cmd
                0x000000000015c5ac                nsm_tunnel_source_cmd
                0x000000000015c5c8                no_nsm_tunnel_source_cmd
                0x000000000015c5e4                nsm_tunnel_destination_cmd
                0x000000000015c600                no_nsm_tunnel_destination_cmd
 .data          0x000000000015c619        0x0 /home/zhurish/workspace/working/zpl-source/source/debug/lib/libnsm.a(cmd_serial.o)
 *fill*         0x000000000015c619        0x3 
 .data.rel.local
                0x000000000015c61c      0x115 /home/zhurish/workspace/working/zpl-source/source/debug/lib/libnsm.a(cmd_serial.o)
                0x000000000015c61c                serial_clock_rate_cmd
                0x000000000015c638                no_serial_clock_rate_cmd
                0x000000000015c654                serial_data_bit_cmd
                0x000000000015c670                no_serial_data_bit_cmd
                0x000000000015c68c                serial_stop_bit_cmd
                0x000000000015c6a8                no_serial_stop_bit_cmd
                0x000000000015c6c4                serial_parity_cmd
                0x000000000015c6e0                no_serial_parity_cmd
                0x000000000015c6fc                serial_flow_cmd
                0x000000000015c718                no_serial_flow_cmd
 .data          0x000000000015c731        0x0 /home/zhurish/workspace/working/zpl-source/source/debug/lib/libnsm.a(cmd_ppp.o)
 *fill*         0x000000000015c731        0x3 
 .data.rel.local
                0x000000000015c734      0x329 /home/zhurish/workspace/working/zpl-source/source/debug/lib/libnsm.a(cmd_ppp.o)
                0x000000000015c734                ppp_authentication_cmd
                0x000000000015c750                no_ppp_authentication_cmd
                0x000000000015c76c                ppp_chap_username_cmd
                0x000000000015c788                no_ppp_chap_username_cmd
                0x000000000015c7a4                ppp_chap_password_cmd
                0x000000000015c7c0                no_ppp_chap_password_cmd
                0x000000000015c7dc                ppp_chap_direction_cmd
                0x000000000015c7f8                no_ppp_chap_direction_cmd
                0x000000000015c814                ppp_chap_refuse_cmd
                0x000000000015c830                ppp_chap_refuse_callin_cmd
                0x000000000015c84c                no_ppp_chap_refuse_cmd
                0x000000000015c868                ppp_chap_wait_cmd
                0x000000000015c884                no_ppp_chap_wait_cmd
                0x000000000015c8a0                ppp_max_bad_auth_cmd
                0x000000000015c8bc                no_ppp_max_bad_auth_cmd
                0x000000000015c8d8                ppp_chap_splitnames_cmd
                0x000000000015c8f4                no_ppp_chap_splitnames_cmd
                0x000000000015c910                ppp_chap_ignoreus_cmd
                0x000000000015c92c                no_ppp_chap_ignoreus_cmd
                0x000000000015c948                ppp_pap_username_cmd
                0x000000000015c964                no_ppp_pap_username_cmd
                0x000000000015c980                ppp_negotiation_timeout_cmd
                0x000000000015c99c                no_ppp_negotiation_timeout_cmd
                0x000000000015c9b8                peer_default_address_cmd
                0x000000000015c9d4                no_peer_default_address_cmd
                0x000000000015c9f0                ppp_compress_cmd
                0x000000000015ca0c                no_ppp_compress_cmd
                0x000000000015ca28                ppp_tcp_compress_cmd
                0x000000000015ca44                no_ppp_tcp_compress_cmd
 .data          0x000000000015ca5d        0x0 /home/zhurish/workspace/working/zpl-source/source/debug/lib/libnsm.a(nsm_halpal.o)
 .data          0x000000000015ca5d        0x0 /home/zhurish/workspace/working/zpl-source/source/debug/lib/libnsm.a(nsm_pal.o)
 *fill*         0x000000000015ca5d        0x3 
 .data          0x000000000015ca60        0xc /home/zhurish/workspace/working/zpl-source/source/debug/lib/libos.a(os_ipstack.o)
 .data          0x000000000015ca6c        0x0 /home/zhurish/workspace/working/zpl-source/source/debug/lib/libos.a(os_job.o)
 .data          0x000000000015ca6c        0x0 /home/zhurish/workspace/working/zpl-source/source/debug/lib/libos.a(os_list.o)
 .data          0x000000000015ca6c        0x0 /home/zhurish/workspace/working/zpl-source/source/debug/lib/libos.a(os_sem.o)
 .data          0x000000000015ca6c        0x0 /home/zhurish/workspace/working/zpl-source/source/debug/lib/libos.a(os_task.o)
 .data          0x000000000015ca6c        0x0 /home/zhurish/workspace/working/zpl-source/source/debug/lib/libos.a(os_time.o)
 .data.rel.local
                0x000000000015ca6c      0xe08 /home/zhurish/workspace/working/zpl-source/source/debug/lib/libos.a(os_time.o)
                0x000000000015ca6c                time_zone_tbl
 .data          0x000000000015d874        0x0 /home/zhurish/workspace/working/zpl-source/source/debug/lib/libos.a(os_util.o)
 .data          0x000000000015d874        0x0 /home/zhurish/workspace/working/zpl-source/source/debug/lib/libos.a(os_socket.o)
 .data          0x000000000015d874        0x0 /home/zhurish/workspace/working/zpl-source/source/debug/lib/libos.a(os_process.o)
 .data          0x000000000015d874        0x0 /home/zhurish/workspace/working/zpl-source/source/debug/lib/libos.a(os_file.o)
 .data          0x000000000015d874        0x0 /home/zhurish/workspace/working/zpl-source/source/debug/lib/libos.a(os_signal.o)
 .data          0x000000000015d874        0x0 /home/zhurish/workspace/working/zpl-source/source/debug/lib/libos.a(os_backtrace.o)
 .data          0x000000000015d874        0x0 /home/zhurish/workspace/working/zpl-source/source/debug/lib/libos.a(libnetpro.o)
 .data.rel.local
                0x000000000015d874      0x378 /home/zhurish/workspace/working/zpl-source/source/debug/lib/libos.a(libnetpro.o)
 .data          0x000000000015dbec        0x0 /home/zhurish/workspace/working/zpl-source/source/debug/lib/libos.a(zpl_errno.o)
 .data.rel.local
                0x000000000015dbec       0xa8 /home/zhurish/workspace/working/zpl-source/source/debug/lib/libos.a(zpl_errno.o)
                0x000000000015dbec                errno_tbl
 .data          0x000000000015dc94        0x0 /home/zhurish/workspace/working/zpl-source/source/debug/lib/libpal.a(pal_driver.o)
 .data.rel      0x000000000015dc94       0x94 /home/zhurish/workspace/working/zpl-source/source/debug/lib/libpal.a(pal_driver.o)
                0x000000000015dc94                module_list_pal
 .data          0x000000000015dd28        0x0 /home/zhurish/workspace/working/zpl-source/source/debug/lib/libpal.a(kernel_packet.o)
 .data          0x000000000015dd28        0x0 /home/zhurish/workspace/working/zpl-source/source/debug/lib/libpal.a(kernel_arp.o)
 .data          0x000000000015dd28       0x57 /home/zhurish/workspace/working/zpl-source/source/debug/lib/libpal.a(kernel_ipforward.o)
                0x000000000015dd28                proc_net_snmp
                0x000000000015dd38                proc_ipv4_forwarding
                0x000000000015dd58                proc_ipv6_forwarding
 .data          0x000000000015dd7f        0x0 /home/zhurish/workspace/working/zpl-source/source/debug/lib/libpal.a(kernel_driver.o)
 .data          0x000000000015dd7f        0x0 /home/zhurish/workspace/working/zpl-source/source/debug/lib/libpal.a(kernel_ioctl.o)
 *fill*         0x000000000015dd7f        0x1 
 .data          0x000000000015dd80        0x4 /home/zhurish/workspace/working/zpl-source/source/debug/lib/libpal.a(kernel_vrf.o)
 .data          0x000000000015dd84        0x0 /home/zhurish/workspace/working/zpl-source/source/debug/lib/libpal.a(kernel_nladdress.o)
 .data          0x000000000015dd84        0x0 /home/zhurish/workspace/working/zpl-source/source/debug/lib/libpal.a(kernel_nliface.o)
 .data          0x000000000015dd84        0x0 /home/zhurish/workspace/working/zpl-source/source/debug/lib/libpal.a(kernel_firewalld.o)
 .data          0x000000000015dd84        0x0 /home/zhurish/workspace/working/zpl-source/source/debug/lib/libpal.a(kernel_netlink.o)
 .data          0x000000000015dd84        0x0 /home/zhurish/workspace/working/zpl-source/source/debug/lib/libproduct.a(hal_client.o)
 .data.rel.local
                0x000000000015dd84       0x94 /home/zhurish/workspace/working/zpl-source/source/debug/lib/libproduct.a(hal_client.o)
                0x000000000015dd84                module_list_bsp
 .data          0x000000000015de18        0x0 /home/zhurish/workspace/working/zpl-source/source/debug/lib/libproduct.a(bsp_driver.o)
 .data.rel      0x000000000015de18      0x1fc /home/zhurish/workspace/working/zpl-source/source/debug/lib/libproduct.a(bsp_driver.o)
                0x000000000015de18                module_list_sdk
 .data          0x000000000015e014        0x0 /home/zhurish/workspace/working/zpl-source/source/debug/lib/libproduct.a(bsp_global.o)
 .data.rel.local
                0x000000000015e014       0x6c /home/zhurish/workspace/working/zpl-source/source/debug/lib/libproduct.a(bsp_global.o)
 .data          0x000000000015e080        0x0 /home/zhurish/workspace/working/zpl-source/source/debug/lib/libproduct.a(bsp_port.o)
 .data.rel.local
                0x000000000015e080       0xd8 /home/zhurish/workspace/working/zpl-source/source/debug/lib/libproduct.a(bsp_port.o)
 .data          0x000000000015e158        0x0 /home/zhurish/workspace/working/zpl-source/source/debug/lib/libproduct.a(bsp_mstp.o)
 .data.rel.local
                0x000000000015e158       0x54 /home/zhurish/workspace/working/zpl-source/source/debug/lib/libproduct.a(bsp_mstp.o)
 .data          0x000000000015e1ac        0x0 /home/zhurish/workspace/working/zpl-source/source/debug/lib/libproduct.a(bsp_8021x.o)
 .data.rel.local
                0x000000000015e1ac       0x3c /home/zhurish/workspace/working/zpl-source/source/debug/lib/libproduct.a(bsp_8021x.o)
 .data          0x000000000015e1e8        0x0 /home/zhurish/workspace/working/zpl-source/source/debug/lib/libproduct.a(bsp_dos.o)
 .data.rel.local
                0x000000000015e1e8       0xcc /home/zhurish/workspace/working/zpl-source/source/debug/lib/libproduct.a(bsp_dos.o)
 .data          0x000000000015e2b4        0x0 /home/zhurish/workspace/working/zpl-source/source/debug/lib/libproduct.a(bsp_mac.o)
 .data.rel.local
                0x000000000015e2b4       0x48 /home/zhurish/workspace/working/zpl-source/source/debug/lib/libproduct.a(bsp_mac.o)
 .data          0x000000000015e2fc        0x0 /home/zhurish/workspace/working/zpl-source/source/debug/lib/libproduct.a(bsp_vlan.o)
 .data.rel.local
                0x000000000015e2fc       0x78 /home/zhurish/workspace/working/zpl-source/source/debug/lib/libproduct.a(bsp_vlan.o)
 .data          0x000000000015e374        0x0 /home/zhurish/workspace/working/zpl-source/source/debug/lib/libproduct.a(bsp_qinq.o)
 .data.rel.local
                0x000000000015e374       0x30 /home/zhurish/workspace/working/zpl-source/source/debug/lib/libproduct.a(bsp_qinq.o)
 .data          0x000000000015e3a4        0x0 /home/zhurish/workspace/working/zpl-source/source/debug/lib/libproduct.a(bsp_qos.o)
 .data.rel.local
                0x000000000015e3a4       0xd8 /home/zhurish/workspace/working/zpl-source/source/debug/lib/libproduct.a(bsp_qos.o)
 .data          0x000000000015e47c        0x0 /home/zhurish/workspace/working/zpl-source/source/debug/lib/libproduct.a(bsp_trunk.o)
 .data.rel.local
                0x000000000015e47c       0x48 /home/zhurish/workspace/working/zpl-source/source/debug/lib/libproduct.a(bsp_trunk.o)
 .data          0x000000000015e4c4        0x0 /home/zhurish/workspace/working/zpl-source/source/debug/lib/libproduct.a(bsp_mirror.o)
 .data.rel.local
                0x000000000015e4c4       0x30 /home/zhurish/workspace/working/zpl-source/source/debug/lib/libproduct.a(bsp_mirror.o)
 .data          0x000000000015e4f4        0x0 /home/zhurish/workspace/working/zpl-source/source/debug/lib/libproduct.a(bsp_cpu.o)
 .data.rel.local
                0x000000000015e4f4       0x48 /home/zhurish/workspace/working/zpl-source/source/debug/lib/libproduct.a(bsp_cpu.o)
 .data          0x000000000015e53c       0x18 /home/zhurish/workspace/working/zpl-source/source/debug/lib/librtpl.a(nsm_rib.o)
                0x000000000015e53c                rib_process_hold_time
 .data          0x000000000015e554        0x0 /home/zhurish/workspace/working/zpl-source/source/debug/lib/librtpl.a(router-id.o)
 .data          0x000000000015e554        0x0 /home/zhurish/workspace/working/zpl-source/source/debug/lib/librtpl.a(nsm_redistribute.o)
 .data          0x000000000015e554        0x0 /home/zhurish/workspace/working/zpl-source/source/debug/lib/librtpl.a(nsm_zserv.o)
 .data          0x000000000015e554        0x0 /home/zhurish/workspace/working/zpl-source/source/debug/lib/librtpl.a(nsm_rnh.o)
 .data          0x000000000015e554        0x0 /home/zhurish/workspace/working/zpl-source/source/debug/lib/libsdk.a(sdk_driver.o)
 .data          0x000000000015e554        0x0 /home/zhurish/workspace/working/zpl-source/source/debug/lib/libsdk.a(b53_mac_tbl.o)
 .data          0x000000000015e554        0x0 /home/zhurish/workspace/working/zpl-source/source/debug/lib/libsdk.a(b53_driver.o)
 .data          0x000000000015e554        0x0 /home/zhurish/workspace/working/zpl-source/source/debug/lib/libsdk.a(b53_mdio.o)
 .data          0x000000000015e554        0x0 /home/zhurish/workspace/working/zpl-source/source/debug/lib/libsdk.a(b53_global.o)
 .data          0x000000000015e554        0x0 /home/zhurish/workspace/working/zpl-source/source/debug/lib/libsdk.a(b53_dos.o)
 .data.rel.local
                0x000000000015e554       0x19 /home/zhurish/workspace/working/zpl-source/source/debug/lib/libsdk.a(b53_dos.o)
                0x000000000015e554                b53125_sdk_dos_test_cmd
 .data          0x000000000015e56d        0x0 /home/zhurish/workspace/working/zpl-source/source/debug/lib/libsdk.a(b53_mirror.o)
 .data          0x000000000015e56d        0x0 /home/zhurish/workspace/working/zpl-source/source/debug/lib/libsdk.a(b53_port.o)
 .data          0x000000000015e56d        0x0 /home/zhurish/workspace/working/zpl-source/source/debug/lib/libsdk.a(b53_stp.o)
 .data          0x000000000015e56d        0x0 /home/zhurish/workspace/working/zpl-source/source/debug/lib/libsdk.a(b53_trunk.o)
 .data          0x000000000015e56d        0x0 /home/zhurish/workspace/working/zpl-source/source/debug/lib/libsdk.a(b53_vlan.o)
 *fill*         0x000000000015e56d        0x3 
 .data.rel.local
                0x000000000015e570       0x6d /home/zhurish/workspace/working/zpl-source/source/debug/lib/libsdk.a(b53_vlan.o)
                0x000000000015e570                b53125_enable_vlan_test_cmd
                0x000000000015e58c                b53125_create_vlan_test_cmd
                0x000000000015e5a8                b53125_port_addtagport_test_cmd
                0x000000000015e5c4                b53125_port_adduntagport_test_cmd
 .data          0x000000000015e5dd        0x0 /home/zhurish/workspace/working/zpl-source/source/debug/lib/libsdk.a(b53_qos.o)
 .data          0x000000000015e5dd        0x0 /home/zhurish/workspace/working/zpl-source/source/debug/lib/libsdk.a(b53_rate.o)
 .data          0x000000000015e5dd        0x0 /home/zhurish/workspace/working/zpl-source/source/debug/lib/libsdk.a(b53_eap.o)
 .data          0x000000000015e5dd        0x0 /home/zhurish/workspace/working/zpl-source/source/debug/lib/libsdk.a(b53_phy.o)
 .data          0x000000000015e5dd        0x0 /home/zhurish/workspace/working/zpl-source/source/debug/lib/libsdk.a(b53_cpu.o)
 .data          0x000000000015e5dd        0x0 /home/zhurish/workspace/working/zpl-source/source/debug/lib/libshell.a(vty_user.o)
 *fill*         0x000000000015e5dd        0x3 
 .data          0x000000000015e5e0       0xe8 /home/zhurish/workspace/working/zpl-source/source/debug/lib/libshell.a(vty.o)
 .data.rel      0x000000000015e6c8      0x128 /home/zhurish/workspace/working/zpl-source/source/debug/lib/libshell.a(vty.o)
                0x000000000015e6c8                module_list_console
                0x000000000015e75c                module_list_telnet
 .data          0x000000000015e7f0        0x0 /home/zhurish/workspace/working/zpl-source/source/debug/lib/libstartup.a(os_start.o)
 .data.rel.local
                0x000000000015e7f0       0x48 /home/zhurish/workspace/working/zpl-source/source/debug/lib/libstartup.a(os_start.o)
 .data          0x000000000015e838        0x0 /home/zhurish/workspace/working/zpl-source/source/debug/lib/libstartup.a(os_module.o)
 .data          0x000000000015e838        0x0 /home/zhurish/workspace/working/zpl-source/source/debug/lib/libstartup.a(os_test.o)
 .data.rel.local
                0x000000000015e838      0x115 /home/zhurish/workspace/working/zpl-source/source/debug/lib/libstartup.a(os_test.o)
                0x000000000015e838                i_iusp_test_cmd
                0x000000000015e854                i_mac_test_cmd
                0x000000000015e870                syslog_debug_test_cmd
                0x000000000015e88c                uci_get_test_cmd_cmd
                0x000000000015e8a8                uci_set_test_cmd_cmd
                0x000000000015e8c4                uci_list_test_cmd_cmd
                0x000000000015e8e0                uci_section_test_cmd_cmd
                0x000000000015e8fc                uci_del_test_cmd_cmd
                0x000000000015e918                uci_del_test_vv_cmd
                0x000000000015e934                uci_commit_test_cmd_cmd
 .data          0x000000000015e94d        0x0 /home/zhurish/workspace/working/zpl-source/source/debug/lib/libuci.a(os_uci.o)
 *fill*         0x000000000015e94d        0x3 
 .data.rel.local
                0x000000000015e950        0x4 /home/zhurish/workspace/working/zpl-source/source/debug/lib/libuci.a(os_uci.o)
 .data          0x000000000015e954        0x0 /home/zhurish/workspace/working/zpl-source/source/debug/lib/libuci.a(delta.o)
 .data          0x000000000015e954        0x0 /home/zhurish/workspace/working/zpl-source/source/debug/lib/libuci.a(file.o)
 .data.rel.local
                0x000000000015e954       0x24 /home/zhurish/workspace/working/zpl-source/source/debug/lib/libuci.a(file.o)
                0x000000000015e954                uci_file_backend
 .data          0x000000000015e978        0x0 /home/zhurish/workspace/working/zpl-source/source/debug/lib/libuci.a(util.o)
 .data          0x000000000015e978        0x0 /home/zhurish/workspace/working/zpl-source/source/debug/lib/libuci.a(libuci.o)
 .data.rel.local
                0x000000000015e978       0x28 /home/zhurish/workspace/working/zpl-source/source/debug/lib/libuci.a(libuci.o)
                0x000000000015e998                uci_confdir
                0x000000000015e99c                uci_savedir
 .data          0x000000000015e9a0        0x0 /home/zhurish/workspace/working/zpl-source/source/debug/lib/libbase.a(md5.o)
 .data          0x000000000015e9a0        0x0 /home/zhurish/workspace/working/zpl-source/source/debug/lib/libbase.a(sockunion.o)
 .data          0x000000000015e9a0        0x0 /home/zhurish/workspace/working/zpl-source/source/debug/lib/libbase.a(pid_output.o)
 .data          0x000000000015e9a0        0x0 /home/zhurish/workspace/working/zpl-source/source/debug/lib/libbase.a(buffer.o)
 .data          0x000000000015e9a0        0x0 /home/zhurish/workspace/working/zpl-source/source/debug/lib/libbase.a(template.o)
 .data.rel.local
                0x000000000015e9a0       0x30 /home/zhurish/workspace/working/zpl-source/source/debug/lib/libbase.a(template.o)
 .data          0x000000000015e9d0        0x0 /home/zhurish/workspace/working/zpl-source/source/debug/lib/libbase.a(stream.o)
 .data          0x000000000015e9d0        0x0 /home/zhurish/workspace/working/zpl-source/source/debug/lib/libbase.a(nexthop.o)
 .data.rel.local
                0x000000000015e9d0       0x28 /home/zhurish/workspace/working/zpl-source/source/debug/lib/libbase.a(nexthop.o)
 .data          0x000000000015e9f8        0x0 /home/zhurish/workspace/working/zpl-source/source/debug/lib/libbase.a(table.o)
 .data.rel.local
                0x000000000015e9f8        0x8 /home/zhurish/workspace/working/zpl-source/source/debug/lib/libbase.a(table.o)
 .data          0x000000000015ea00        0x0 /home/zhurish/workspace/working/zpl-source/source/debug/lib/libbase.a(connected.o)
 .data          0x000000000015ea00        0x0 /home/zhurish/workspace/working/zpl-source/source/debug/lib/libbase.a(if.o)
 .data          0x000000000015ea00        0x0 /home/zhurish/workspace/working/zpl-source/source/debug/lib/libbase.a(nsm_vrf.o)
 .data          0x000000000015ea00        0x0 /home/zhurish/workspace/working/zpl-source/source/debug/lib/libbase.a(if_name.o)
 .data.rel.local
                0x000000000015ea00       0xb0 /home/zhurish/workspace/working/zpl-source/source/debug/lib/libbase.a(if_name.o)
                0x000000000015ea00                if_name_mgt
 .data          0x000000000015eab0        0x0 /home/zhurish/workspace/working/zpl-source/source/debug/lib/libbase.a(nsm_event.o)
 .data          0x000000000015eab0       0x34 /home/zhurish/workspace/working/zpl-source/source/debug/lib/libbase.a(keychain.o)
 .data.rel.local
                0x000000000015eae4      0x298 /home/zhurish/workspace/working/zpl-source/source/debug/lib/libbase.a(keychain.o)
                0x000000000015eae4                key_chain_cmd
                0x000000000015eb00                no_key_chain_cmd
                0x000000000015eb1c                key_cmd
                0x000000000015eb38                no_key_cmd
                0x000000000015eb54                key_string_cmd
                0x000000000015eb70                no_key_string_cmd
                0x000000000015eb8c                accept_lifetime_day_month_day_month_cmd
                0x000000000015eba8                accept_lifetime_day_month_month_day_cmd
                0x000000000015ebc4                accept_lifetime_month_day_day_month_cmd
                0x000000000015ebe0                accept_lifetime_month_day_month_day_cmd
                0x000000000015ebfc                accept_lifetime_infinite_day_month_cmd
                0x000000000015ec18                accept_lifetime_infinite_month_day_cmd
                0x000000000015ec34                accept_lifetime_duration_day_month_cmd
                0x000000000015ec50                accept_lifetime_duration_month_day_cmd
                0x000000000015ec6c                send_lifetime_day_month_day_month_cmd
                0x000000000015ec88                send_lifetime_day_month_month_day_cmd
                0x000000000015eca4                send_lifetime_month_day_day_month_cmd
                0x000000000015ecc0                send_lifetime_month_day_month_day_cmd
                0x000000000015ecdc                send_lifetime_infinite_day_month_cmd
                0x000000000015ecf8                send_lifetime_infinite_month_day_cmd
                0x000000000015ed14                send_lifetime_duration_day_month_cmd
                0x000000000015ed30                send_lifetime_duration_month_day_cmd
 .data          0x000000000015ed7c        0x0 /home/zhurish/workspace/working/zpl-source/source/debug/lib/libbase.a(filter.o)
 .data.rel.local
                0x000000000015ed7c      0xe9c /home/zhurish/workspace/working/zpl-source/source/debug/lib/libbase.a(filter.o)
                0x000000000015ed7c                access_list_standard_cmd
                0x000000000015ed98                access_list_standard_nomask_cmd
                0x000000000015edb4                access_list_standard_host_cmd
                0x000000000015edd0                access_list_standard_any_cmd
                0x000000000015edec                no_access_list_standard_cmd
                0x000000000015ee08                no_access_list_standard_nomask_cmd
                0x000000000015ee24                no_access_list_standard_host_cmd
                0x000000000015ee40                no_access_list_standard_any_cmd
                0x000000000015ee5c                access_list_extended_cmd
                0x000000000015ee78                access_list_extended_mask_any_cmd
                0x000000000015ee94                access_list_extended_any_mask_cmd
                0x000000000015eeb0                access_list_extended_any_any_cmd
                0x000000000015eecc                access_list_extended_mask_host_cmd
                0x000000000015eee8                access_list_extended_host_mask_cmd
                0x000000000015ef04                access_list_extended_host_host_cmd
                0x000000000015ef20                access_list_extended_any_host_cmd
                0x000000000015ef3c                access_list_extended_host_any_cmd
                0x000000000015ef58                no_access_list_extended_cmd
                0x000000000015ef74                no_access_list_extended_mask_any_cmd
                0x000000000015ef90                no_access_list_extended_any_mask_cmd
                0x000000000015efac                no_access_list_extended_any_any_cmd
                0x000000000015efc8                no_access_list_extended_mask_host_cmd
                0x000000000015efe4                no_access_list_extended_host_mask_cmd
                0x000000000015f000                no_access_list_extended_host_host_cmd
                0x000000000015f01c                no_access_list_extended_any_host_cmd
                0x000000000015f038                no_access_list_extended_host_any_cmd
                0x000000000015f054                access_list_cmd
                0x000000000015f070                access_list_exact_cmd
                0x000000000015f08c                access_list_any_cmd
                0x000000000015f0a8                no_access_list_cmd
                0x000000000015f0c4                no_access_list_exact_cmd
                0x000000000015f0e0                no_access_list_any_cmd
                0x000000000015f0fc                no_access_list_all_cmd
                0x000000000015f118                access_list_remark_cmd
                0x000000000015f134                no_access_list_remark_cmd
                0x000000000015f150                no_access_list_remark_arg_cmd
                0x000000000015f16c                ipv6_access_list_cmd
                0x000000000015f188                ipv6_access_list_exact_cmd
                0x000000000015f1a4                ipv6_access_list_any_cmd
                0x000000000015f1c0                no_ipv6_access_list_cmd
                0x000000000015f1dc                no_ipv6_access_list_exact_cmd
                0x000000000015f1f8                no_ipv6_access_list_any_cmd
                0x000000000015f214                no_ipv6_access_list_all_cmd
                0x000000000015f230                ipv6_access_list_remark_cmd
                0x000000000015f24c                no_ipv6_access_list_remark_cmd
                0x000000000015f268                no_ipv6_access_list_remark_arg_cmd
                0x000000000015f284                access_list_ip_protocol_cmd
                0x000000000015f2a0                no_access_list_ip_protocol_cmd
                0x000000000015f2bc                no_access_list_ip_tcpudp_cmd
                0x000000000015f2d8                no_access_list_ip_tcpudp_name_cmd
                0x000000000015f2f4                access_list_ip_tcpudp_cmd
                0x000000000015f310                access_list_ip_tcpudp_srcport_cmd
                0x000000000015f32c                access_list_ip_tcpudp_srcport_range_cmd
                0x000000000015f348                access_list_ip_tcpudp_srcport_ng_cmd
                0x000000000015f364                access_list_ip_tcpudp_dstport_cmd
                0x000000000015f380                access_list_ip_tcpudp_dstport_range_cmd
                0x000000000015f39c                access_list_ip_tcpudp_dstport_ng_cmd
                0x000000000015f3b8                access_list_ip_tcpudp_srcport_dstport_cmd
                0x000000000015f3d4                access_list_ip_tcpudp_srcport_dstport_range_cmd
                0x000000000015f3f0                access_list_ip_tcpudp_srcport_dstport_ng_cmd
                0x000000000015f40c                access_list_ip_tcpudp_srcport_range_dstport_cmd
                0x000000000015f428                access_list_ip_tcpudp_srcport_range_dstport_range_cmd
                0x000000000015f444                access_list_ip_tcpudp_srcport_range_dstport_ng_cmd
                0x000000000015f460                access_list_ip_tcpudp_srcport_ng_dstport_cmd
                0x000000000015f47c                access_list_ip_tcpudp_srcport_ng_dstport_range_cmd
                0x000000000015f498                access_list_ip_tcpudp_srcport_ng_dstport_ng_cmd
                0x000000000015f4b4                access_list_ipv6_protocol_cmd
                0x000000000015f4d0                no_access_list_ipv6_protocol_cmd
                0x000000000015f4ec                no_access_list_ipv6_tcpudp_cmd
                0x000000000015f508                no_access_list_ipv6_tcpudp_name_cmd
                0x000000000015f524                access_list_ipv6_tcpudp_cmd
                0x000000000015f540                access_list_ipv6_tcpudp_srcport_cmd
                0x000000000015f55c                access_list_ipv6_tcpudp_srcport_range_cmd
                0x000000000015f578                access_list_ipv6_tcpudp_srcport_ng_cmd
                0x000000000015f594                access_list_ipv6_tcpudp_dstport_cmd
                0x000000000015f5b0                access_list_ipv6_tcpudp_dstport_range_cmd
                0x000000000015f5cc                access_list_ipv6_tcpudp_dstport_ng_cmd
                0x000000000015f5e8                access_list_ipv6_tcpudp_srcport_dstport_cmd
                0x000000000015f604                access_list_ipv6_tcpudp_srcport_dstport_range_cmd
                0x000000000015f620                access_list_ipv6_tcpudp_srcport_dstport_ng_cmd
                0x000000000015f63c                access_list_ipv6_tcpudp_srcport_range_dstport_cmd
                0x000000000015f658                access_list_ipv6_tcpudp_srcport_range_dstport_range_cmd
                0x000000000015f674                access_list_ipv6_tcpudp_srcport_range_dstport_ng_cmd
                0x000000000015f690                access_list_ipv6_tcpudp_srcport_ng_dstport_cmd
                0x000000000015f6ac                access_list_ipv6_tcpudp_srcport_ng_dstport_range_cmd
                0x000000000015f6c8                access_list_ipv6_tcpudp_srcport_ng_dstport_ng_cmd
                0x000000000015f6e4                mac_access_list_src_mac_any_cmd
                0x000000000015f700                mac_access_list_src_mac_any_dstany_cmd
                0x000000000015f71c                mac_access_list_src_mac_any_dstany_vlan_cmd
                0x000000000015f738                mac_access_list_src_mac_any_dstany_vlan_cos_cmd
                0x000000000015f754                mac_access_list_src_mac_any_dstany_vlan_cos_type_cmd
                0x000000000015f770                mac_access_list_src_mac_any_dstmask_cmd
                0x000000000015f78c                mac_access_list_src_mac_any_dstmask_vlan_cmd
                0x000000000015f7a8                mac_access_list_src_mac_any_dstmask_vlan_cos_cmd
                0x000000000015f7c4                mac_access_list_src_mac_any_dstmask_vlan_cos_type_cmd
                0x000000000015f7e0                mac_access_list_src_mac_any_dsthost_cmd
                0x000000000015f7fc                mac_access_list_src_mac_any_dsthost_vlan_cmd
                0x000000000015f818                mac_access_list_src_mac_any_dsthost_vlan_cos_cmd
                0x000000000015f834                mac_access_list_src_mac_any_dsthost_vlan_cos_type_cmd
                0x000000000015f850                mac_access_list_src_mac_mask_cmd
                0x000000000015f86c                mac_access_list_src_mac_mask_dstany_cmd
                0x000000000015f888                mac_access_list_src_mac_mask_dstany_vlan_cmd
                0x000000000015f8a4                mac_access_list_src_mac_mask_dstany_vlan_cos_cmd
                0x000000000015f8c0                mac_access_list_src_mac_mask_dstany_vlan_cos_type_cmd
                0x000000000015f8dc                mac_access_list_src_mac_mask_dstmask_cmd
                0x000000000015f8f8                mac_access_list_src_mac_mask_dstmask_vlan_cmd
                0x000000000015f914                mac_access_list_src_mac_mask_dstmask_vlan_cos_cmd
                0x000000000015f930                mac_access_list_src_mac_mask_dstmask_vlan_cos_type_cmd
                0x000000000015f94c                mac_access_list_src_mac_mask_dsthost_cmd
                0x000000000015f968                mac_access_list_src_mac_mask_dsthost_vlan_cmd
                0x000000000015f984                mac_access_list_src_mac_mask_dsthost_vlan_cos_cmd
                0x000000000015f9a0                mac_access_list_src_mac_mask_dsthost_vlan_cos_type_cmd
                0x000000000015f9bc                mac_access_list_src_mac_host_cmd
                0x000000000015f9d8                mac_access_list_src_mac_host_dstany_cmd
                0x000000000015f9f4                mac_access_list_src_mac_host_dstany_vlan_cmd
                0x000000000015fa10                mac_access_list_src_mac_host_dstany_vlan_cos_cmd
                0x000000000015fa2c                mac_access_list_src_mac_host_dstany_vlan_cos_type_cmd
                0x000000000015fa48                mac_access_list_src_mac_host_dstmask_cmd
                0x000000000015fa64                mac_access_list_src_mac_host_dstmask_vlan_cmd
                0x000000000015fa80                mac_access_list_src_mac_host_dstmask_vlan_cos_cmd
                0x000000000015fa9c                mac_access_list_src_mac_host_dstmask_vlan_cos_type_cmd
                0x000000000015fab8                mac_access_list_src_mac_host_dsthost_cmd
                0x000000000015fad4                mac_access_list_src_mac_host_dsthost_vlan_cmd
                0x000000000015faf0                mac_access_list_src_mac_host_dsthost_vlan_cos_cmd
                0x000000000015fb0c                mac_access_list_src_mac_host_dsthost_vlan_cos_type_cmd
                0x000000000015fb28                show_ip_access_list_cmd
                0x000000000015fb44                show_ip_access_list_name_cmd
                0x000000000015fb60                show_ipv6_access_list_cmd
                0x000000000015fb7c                show_ipv6_access_list_name_cmd
                0x000000000015fb98                show_mac_access_list_cmd
                0x000000000015fbb4                show_mac_access_list_name_cmd
 .data          0x000000000015fc18       0x80 /home/zhurish/workspace/working/zpl-source/source/debug/lib/libbase.a(plist.o)
 .data.rel.local
                0x000000000015fc98      0x8b8 /home/zhurish/workspace/working/zpl-source/source/debug/lib/libbase.a(plist.o)
                0x000000000015fc98                ip_prefix_list_cmd
                0x000000000015fcb4                ip_prefix_list_ge_cmd
                0x000000000015fcd0                ip_prefix_list_ge_le_cmd
                0x000000000015fcec                ip_prefix_list_le_cmd
                0x000000000015fd08                ip_prefix_list_le_ge_cmd
                0x000000000015fd24                ip_prefix_list_seq_cmd
                0x000000000015fd40                ip_prefix_list_seq_ge_cmd
                0x000000000015fd5c                ip_prefix_list_seq_ge_le_cmd
                0x000000000015fd78                ip_prefix_list_seq_le_cmd
                0x000000000015fd94                ip_prefix_list_seq_le_ge_cmd
                0x000000000015fdb0                no_ip_prefix_list_cmd
                0x000000000015fdcc                no_ip_prefix_list_prefix_cmd
                0x000000000015fde8                no_ip_prefix_list_ge_cmd
                0x000000000015fe04                no_ip_prefix_list_ge_le_cmd
                0x000000000015fe20                no_ip_prefix_list_le_cmd
                0x000000000015fe3c                no_ip_prefix_list_le_ge_cmd
                0x000000000015fe58                no_ip_prefix_list_seq_cmd
                0x000000000015fe74                no_ip_prefix_list_seq_ge_cmd
                0x000000000015fe90                no_ip_prefix_list_seq_ge_le_cmd
                0x000000000015feac                no_ip_prefix_list_seq_le_cmd
                0x000000000015fec8                no_ip_prefix_list_seq_le_ge_cmd
                0x000000000015fee4                ip_prefix_list_sequence_number_cmd
                0x000000000015ff00                no_ip_prefix_list_sequence_number_cmd
                0x000000000015ff1c                ip_prefix_list_description_cmd
                0x000000000015ff38                no_ip_prefix_list_description_cmd
                0x000000000015ff54                no_ip_prefix_list_description_arg_cmd
                0x000000000015ff70                show_ip_prefix_list_cmd
                0x000000000015ff8c                show_ip_prefix_list_name_cmd
                0x000000000015ffa8                show_ip_prefix_list_name_seq_cmd
                0x000000000015ffc4                show_ip_prefix_list_prefix_cmd
                0x000000000015ffe0                show_ip_prefix_list_prefix_longer_cmd
                0x000000000015fffc                show_ip_prefix_list_prefix_first_match_cmd
                0x0000000000160018                show_ip_prefix_list_summary_cmd
                0x0000000000160034                show_ip_prefix_list_summary_name_cmd
                0x0000000000160050                show_ip_prefix_list_detail_cmd
                0x000000000016006c                show_ip_prefix_list_detail_name_cmd
                0x0000000000160088                clear_ip_prefix_list_cmd
                0x00000000001600a4                clear_ip_prefix_list_name_cmd
                0x00000000001600c0                clear_ip_prefix_list_name_prefix_cmd
                0x00000000001600dc                ipv6_prefix_list_cmd
                0x00000000001600f8                ipv6_prefix_list_ge_cmd
                0x0000000000160114                ipv6_prefix_list_ge_le_cmd
                0x0000000000160130                ipv6_prefix_list_le_cmd
                0x000000000016014c                ipv6_prefix_list_le_ge_cmd
                0x0000000000160168                ipv6_prefix_list_seq_cmd
                0x0000000000160184                ipv6_prefix_list_seq_ge_cmd
                0x00000000001601a0                ipv6_prefix_list_seq_ge_le_cmd
                0x00000000001601bc                ipv6_prefix_list_seq_le_cmd
                0x00000000001601d8                ipv6_prefix_list_seq_le_ge_cmd
                0x00000000001601f4                no_ipv6_prefix_list_cmd
                0x0000000000160210                no_ipv6_prefix_list_prefix_cmd
                0x000000000016022c                no_ipv6_prefix_list_ge_cmd
                0x0000000000160248                no_ipv6_prefix_list_ge_le_cmd
                0x0000000000160264                no_ipv6_prefix_list_le_cmd
                0x0000000000160280                no_ipv6_prefix_list_le_ge_cmd
                0x000000000016029c                no_ipv6_prefix_list_seq_cmd
                0x00000000001602b8                no_ipv6_prefix_list_seq_ge_cmd
                0x00000000001602d4                no_ipv6_prefix_list_seq_ge_le_cmd
                0x00000000001602f0                no_ipv6_prefix_list_seq_le_cmd
                0x000000000016030c                no_ipv6_prefix_list_seq_le_ge_cmd
                0x0000000000160328                ipv6_prefix_list_sequence_number_cmd
                0x0000000000160344                no_ipv6_prefix_list_sequence_number_cmd
                0x0000000000160360                ipv6_prefix_list_description_cmd
                0x000000000016037c                no_ipv6_prefix_list_description_cmd
                0x0000000000160398                no_ipv6_prefix_list_description_arg_cmd
                0x00000000001603b4                show_ipv6_prefix_list_cmd
                0x00000000001603d0                show_ipv6_prefix_list_name_cmd
                0x00000000001603ec                show_ipv6_prefix_list_name_seq_cmd
                0x0000000000160408                show_ipv6_prefix_list_prefix_cmd
                0x0000000000160424                show_ipv6_prefix_list_prefix_longer_cmd
                0x0000000000160440                show_ipv6_prefix_list_prefix_first_match_cmd
                0x000000000016045c                show_ipv6_prefix_list_summary_cmd
                0x0000000000160478                show_ipv6_prefix_list_summary_name_cmd
                0x0000000000160494                show_ipv6_prefix_list_detail_cmd
                0x00000000001604b0                show_ipv6_prefix_list_detail_name_cmd
                0x00000000001604cc                clear_ipv6_prefix_list_cmd
                0x00000000001604e8                clear_ipv6_prefix_list_name_cmd
                0x0000000000160504                clear_ipv6_prefix_list_name_prefix_cmd
 .data          0x0000000000160550        0x0 /home/zhurish/workspace/working/zpl-source/source/debug/lib/libbase.a(cmd_log.o)
 .data.rel.local
                0x0000000000160550      0x574 /home/zhurish/workspace/working/zpl-source/source/debug/lib/libbase.a(cmd_log.o)
                0x0000000000160550                config_logmsg_cmd
                0x000000000016056c                config_log_stdout_cmd
                0x0000000000160588                config_log_stdout_level_cmd
                0x00000000001605a4                no_config_log_stdout_cmd
                0x00000000001605c0                no_config_log_stdout_level_cmd
                0x00000000001605dc                config_log_monitor_cmd
                0x00000000001605f8                config_log_monitor_level_cmd
                0x0000000000160614                no_config_log_monitor_cmd
                0x0000000000160630                no_config_log_monitor_level_cmd
                0x000000000016064c                config_log_file_cmd
                0x0000000000160668                config_log_file_level_cmd
                0x0000000000160684                config_log_file_size_cmd
                0x00000000001606a0                no_config_log_file_cmd
                0x00000000001606bc                no_config_log_file_level_cmd
                0x00000000001606d8                no_config_log_file_size_cmd
                0x00000000001606f4                save_log_file_cmd
                0x0000000000160710                config_log_buffer_cmd
                0x000000000016072c                config_log_buffer_level_cmd
                0x0000000000160748                no_config_log_buffer_cmd
                0x0000000000160764                no_config_log_buffer_level_cmd
                0x0000000000160780                config_log_buffer_size_cmd
                0x000000000016079c                config_log_syslog_cmd
                0x00000000001607b8                config_log_syslog_level_cmd
                0x00000000001607d4                no_config_log_syslog_cmd
                0x00000000001607f0                no_config_log_syslog_level_cmd
                0x000000000016080c                config_log_facility_cmd
                0x0000000000160828                no_config_log_facility_cmd
                0x0000000000160844                config_log_trap_cmd
                0x0000000000160860                no_config_log_trap_cmd
                0x000000000016087c                config_log_record_priority_cmd
                0x0000000000160898                no_config_log_record_priority_cmd
                0x00000000001608b4                config_log_timestamp_cmd
                0x00000000001608d0                no_config_log_timestamp_cmd
                0x00000000001608ec                config_log_testing_cmd
                0x0000000000160908                config_log_testing_level_cmd
                0x0000000000160924                no_config_log_testing_cmd
                0x0000000000160940                no_config_log_testing_level_cmd
                0x000000000016095c                config_log_testing_file_cmd
                0x0000000000160978                config_log_testing_file_level_cmd
                0x0000000000160994                no_config_log_testing_file_cmd
                0x00000000001609b0                no_config_log_testing_file_level_cmd
                0x00000000001609cc                show_config_log_file_testing_cmd
                0x00000000001609e8                show_logging_cmd
                0x0000000000160a04                show_config_log_buffer_cmd
                0x0000000000160a20                show_config_log_buffer_level_cmd
                0x0000000000160a3c                show_config_log_buffer_module_cmd
                0x0000000000160a58                show_config_log_buffer_module_level_cmd
                0x0000000000160a74                show_config_log_buffer_size_cmd
                0x0000000000160a90                show_config_log_file_cmd
 .data          0x0000000000160ac4        0x0 /home/zhurish/workspace/working/zpl-source/source/debug/lib/libbase.a(cmd_memory.o)
 .data.rel.local
                0x0000000000160ac4       0x51 /home/zhurish/workspace/working/zpl-source/source/debug/lib/libbase.a(cmd_memory.o)
                0x0000000000160ac4                show_memory_cmd
                0x0000000000160ae0                show_system_clock_cmd
                0x0000000000160afc                show_system_clock_detal_cmd
 .data          0x0000000000160b15        0x0 /home/zhurish/workspace/working/zpl-source/source/debug/lib/libbase.a(jhash.o)
 .data          0x0000000000160b15        0x0 /home/zhurish/workspace/working/zpl-source/source/debug/lib/libbase.a(network.o)
 .data          0x0000000000160b15        0x0 /home/zhurish/workspace/working/zpl-source/source/debug/lib/libhal.a(hal_ipccmd.o)
 .data          0x0000000000160b15        0x0 /home/zhurish/workspace/working/zpl-source/source/debug/lib/libhal.a(hal_ipcmsg.o)
 .data          0x0000000000160b15        0x0 /home/zhurish/workspace/working/zpl-source/source/debug/lib/libhal.a(hal_port.o)
 .data          0x0000000000160b15        0x0 /home/zhurish/workspace/working/zpl-source/source/debug/lib/libhal.a(hal_misc.o)
 .data          0x0000000000160b15        0x0 /home/zhurish/workspace/working/zpl-source/source/debug/lib/libhal.a(hal_mstp.o)
 .data          0x0000000000160b15        0x0 /home/zhurish/workspace/working/zpl-source/source/debug/lib/libhal.a(hal_dos.o)
 .data          0x0000000000160b15        0x0 /home/zhurish/workspace/working/zpl-source/source/debug/lib/libhal.a(hal_mac.o)
 .data          0x0000000000160b15        0x0 /home/zhurish/workspace/working/zpl-source/source/debug/lib/libhal.a(hal_vlan.o)
 .data          0x0000000000160b15        0x0 /home/zhurish/workspace/working/zpl-source/source/debug/lib/libhal.a(hal_trunk.o)
 .data          0x0000000000160b15        0x0 /home/zhurish/workspace/working/zpl-source/source/debug/lib/libhal.a(hal_mirror.o)
 .data          0x0000000000160b15        0x0 /home/zhurish/workspace/working/zpl-source/source/debug/lib/libhal.a(hal_driver.o)
 *fill*         0x0000000000160b15        0x3 
 .data.rel      0x0000000000160b18       0x94 /home/zhurish/workspace/working/zpl-source/source/debug/lib/libhal.a(hal_driver.o)
                0x0000000000160b18                module_list_hal
 .data          0x0000000000160bac        0x0 /home/zhurish/workspace/working/zpl-source/source/debug/lib/libhal.a(hal_test.o)
 .data.rel.local
                0x0000000000160bac      0x30d /home/zhurish/workspace/working/zpl-source/source/debug/lib/libhal.a(hal_test.o)
                0x0000000000160bac                hal_test_manage_mode_cmd
                0x0000000000160bc8                no_hal_test_manage_mode_cmd
                0x0000000000160be4                hal_test_forward_mode_cmd
                0x0000000000160c00                no_hal_test_forward_mode_cmd
                0x0000000000160c1c                hal_test_multicast_learning_cmd
                0x0000000000160c38                no_hal_test_multicast_learning_cmd
                0x0000000000160c54                hal_test_bpdu_cmd
                0x0000000000160c70                no_hal_test_bpdu_cmd
                0x0000000000160c8c                hal_test_icmp_size_cmd
                0x0000000000160ca8                hal_test_tcp_hdr_size_cmd
                0x0000000000160cc4                hal_test_dos_enable_cmd
                0x0000000000160ce0                no_hal_test_dos_enable_cmd
                0x0000000000160cfc                hal_test_mirror_enable_cmd
                0x0000000000160d18                no_hal_test_mirror_enable_cmd
                0x0000000000160d34                hal_test_mirror_src_enable_cmd
                0x0000000000160d50                no_hal_test_mirror_src_enable_cmd
                0x0000000000160d6c                hal_test_interface_up_cmd
                0x0000000000160d88                hal_test_interface_down_cmd
                0x0000000000160da4                hal_test_interface_speed_cmd
                0x0000000000160dc0                hal_test_interface_duplex_cmd
                0x0000000000160ddc                hal_test_jumbo_enable_cmd
                0x0000000000160df8                no_hal_test_jumbo_enable_cmd
                0x0000000000160e14                hal_test_enable_enable_cmd
                0x0000000000160e30                no_hal_test_enable_enable_cmd
                0x0000000000160e4c                hal_test_learning_enable_cmd
                0x0000000000160e68                no_hal_test_learning_enable_cmd
                0x0000000000160e84                hal_test_swlearning_enable_cmd
                0x0000000000160ea0                no_hal_test_swlearning_enable_cmd
 .data          0x0000000000160eb9        0x0 /home/zhurish/workspace/working/zpl-source/source/debug/lib/libhal.a(hal_global.o)
 .data          0x0000000000160eb9        0x0 /home/zhurish/workspace/working/zpl-source/source/debug/lib/libhal.a(hal_ipcsrv.o)
 *fill*         0x0000000000160eb9        0x3 
 .data.rel.local
                0x0000000000160ebc       0x19 /home/zhurish/workspace/working/zpl-source/source/debug/lib/libhal.a(hal_ipcsrv.o)
                0x0000000000160ebc                show_ipcsrv_information_cmd
 .data          0x0000000000160ed5        0x0 /home/zhurish/workspace/working/zpl-source/source/debug/lib/libipcbc.a(if_manage.o)
 *fill*         0x0000000000160ed5        0x3 
 .data          0x0000000000160ed8       0x10 /home/zhurish/workspace/working/zpl-source/source/debug/lib/libipcbc.a(bmgt.o)
 .data          0x0000000000160ee8        0x0 /home/zhurish/workspace/working/zpl-source/source/debug/lib/libipcbc.a(if_ktest.o)
 .data          0x0000000000160ee8        0xc /home/zhurish/workspace/working/zpl-source/source/debug/lib/libnsm.a(nsm_debug.o)
                0x0000000000160ee8                zebra_debug_packet
                0x0000000000160eec                zebra_debug_kernel
                0x0000000000160ef0                zebra_debug_rib
 .data.rel.local
                0x0000000000160ef4      0x1f5 /home/zhurish/workspace/working/zpl-source/source/debug/lib/libnsm.a(nsm_debug.o)
                0x0000000000160ef4                show_debugging_zebra_cmd
                0x0000000000160f10                debug_zebra_events_cmd
                0x0000000000160f2c                debug_zebra_nht_cmd
                0x0000000000160f48                debug_zebra_packet_cmd
                0x0000000000160f64                debug_zebra_packet_direct_cmd
                0x0000000000160f80                debug_zebra_packet_detail_cmd
                0x0000000000160f9c                debug_zebra_kernel_cmd
                0x0000000000160fb8                debug_zebra_rib_cmd
                0x0000000000160fd4                debug_zebra_rib_q_cmd
                0x0000000000160ff0                debug_zebra_fpm_cmd
                0x000000000016100c                no_debug_zebra_events_cmd
                0x0000000000161028                no_debug_zebra_nht_cmd
                0x0000000000161044                no_debug_zebra_packet_cmd
                0x0000000000161060                no_debug_zebra_packet_direct_cmd
                0x000000000016107c                no_debug_zebra_kernel_cmd
                0x0000000000161098                no_debug_zebra_rib_cmd
                0x00000000001610b4                no_debug_zebra_rib_q_cmd
                0x00000000001610d0                no_debug_zebra_fpm_cmd
 .data          0x00000000001610e9        0x0 /home/zhurish/workspace/working/zpl-source/source/debug/lib/libos.a(os_nvram.o)
 *fill*         0x00000000001610e9        0x3 
 .data          0x00000000001610ec       0x48 /home/zhurish/workspace/working/zpl-source/source/debug/lib/libos.a(tty_com.o)
                0x00000000001610ec                speed_table
 .data          0x0000000000161134        0x0 /home/zhurish/workspace/working/zpl-source/source/debug/lib/libos.a(cmd_os.o)
 .data.rel.local
                0x0000000000161134       0x35 /home/zhurish/workspace/working/zpl-source/source/debug/lib/libos.a(cmd_os.o)
                0x0000000000161134                show_process_cmd
                0x0000000000161150                show_process_detail_cmd
 .data          0x0000000000161169        0x0 /home/zhurish/workspace/working/zpl-source/source/debug/lib/libos.a(cmd_nvram_env.o)
 *fill*         0x0000000000161169        0x3 
 .data.rel.local
                0x000000000016116c       0x51 /home/zhurish/workspace/working/zpl-source/source/debug/lib/libos.a(cmd_nvram_env.o)
                0x000000000016116c                os_nvram_env_add_cli_cmd
                0x0000000000161188                os_nvram_env_del_cli_cmd
                0x00000000001611a4                os_nvram_env_show_cli_cmd
 .data          0x00000000001611bd        0x0 /home/zhurish/workspace/working/zpl-source/source/debug/lib/libos.a(os_message.o)
 .data          0x00000000001611bd        0x0 /home/zhurish/workspace/working/zpl-source/source/debug/lib/libshell.a(cmd_vty.o)
 *fill*         0x00000000001611bd        0x3 
 .data.rel.local
                0x00000000001611c0      0x248 /home/zhurish/workspace/working/zpl-source/source/debug/lib/libshell.a(cmd_vty.o)
                0x00000000001611c0                who_cmd
                0x00000000001611dc                line_vty_cmd
                0x00000000001611f8                exec_timeout_min_cmd
                0x0000000000161214                exec_timeout_sec_cmd
                0x0000000000161230                no_exec_timeout_cmd
                0x000000000016124c                vty_access_class_cmd
                0x0000000000161268                no_vty_access_class_cmd
                0x0000000000161284                vty_ipv6_access_class_cmd
                0x00000000001612a0                no_vty_ipv6_access_class_cmd
                0x00000000001612bc                vty_login_cmd
                0x00000000001612d8                no_vty_login_cmd
                0x00000000001612f4                terminal_monitor_cmd
                0x0000000000161310                terminal_no_monitor_cmd
                0x000000000016132c                no_terminal_monitor_cmd
                0x0000000000161348                terminal_trapping_cmd
                0x0000000000161364                no_terminal_trapping_cmd
                0x0000000000161380                show_history_cmd
                0x000000000016139c                log_commands_cmd
                0x00000000001613b8                vtysh_rl_stdio_cmd
                0x00000000001613d4                exit_platform_cmd
 .data          0x0000000000161408        0x0 /home/zhurish/workspace/working/zpl-source/source/debug/lib/libshell.a(cmd_user_vty.o)
 .data.rel.local
                0x0000000000161408      0x114 /home/zhurish/workspace/working/zpl-source/source/debug/lib/libshell.a(cmd_user_vty.o)
                0x0000000000161408                username_cmd
                0x0000000000161424                username_password_cmd
                0x0000000000161440                no_username_cmd
                0x000000000016145c                no_username_password_cmd
                0x0000000000161478                username_enable_password_cmd
                0x0000000000161494                no_username_enable_password_cmd
                0x00000000001614b0                username_privilege_level_cmd
                0x00000000001614cc                no_username_privilege_cmd
                0x00000000001614e8                vty_user_switch_cmd
 .data          0x000000000016151c        0x0 /opt/gcc-linaro-7.5.0-arm-linux-gnueabihf/bin/../arm-linux-gnueabihf/libc/usr/lib/libc_nonshared.a(elf-init.oS)
 .data          0x000000000016151c        0x0 /opt/gcc-linaro-7.5.0-arm-linux-gnueabihf/bin/../arm-linux-gnueabihf/libc/usr/lib/libc_nonshared.a(stat.oS)
 .data          0x000000000016151c        0x0 /opt/gcc-linaro-7.5.0-arm-linux-gnueabihf/bin/../lib/gcc/arm-linux-gnueabihf/7.5.0/crtend.o
 .data          0x000000000016151c        0x0 /opt/gcc-linaro-7.5.0-arm-linux-gnueabihf/bin/../arm-linux-gnueabihf/libc/usr/lib/crtn.o

.tm_clone_table
                0x000000000016151c        0x0
 .tm_clone_table
                0x000000000016151c        0x0 /opt/gcc-linaro-7.5.0-arm-linux-gnueabihf/bin/../lib/gcc/arm-linux-gnueabihf/7.5.0/crtbegin.o
 .tm_clone_table
                0x000000000016151c        0x0 /opt/gcc-linaro-7.5.0-arm-linux-gnueabihf/bin/../lib/gcc/arm-linux-gnueabihf/7.5.0/crtend.o

.data1
 *(.data1)
                0x000000000016151c                _edata = .
                [!provide]                        PROVIDE (edata, .)
                0x000000000016151c                . = .
                0x000000000016151c                __bss_start = .
                0x000000000016151c                __bss_start__ = .

.bss            0x0000000000161520     0x5a58
 *(.dynbss)
 .dynbss        0x0000000000161520        0x0 /opt/gcc-linaro-7.5.0-arm-linux-gnueabihf/bin/../arm-linux-gnueabihf/libc/usr/lib/crt1.o
 *(.bss .bss.* .gnu.linkonce.b.*)
 .bss           0x0000000000161520        0x0 /opt/gcc-linaro-7.5.0-arm-linux-gnueabihf/bin/../arm-linux-gnueabihf/libc/usr/lib/crt1.o
 .bss           0x0000000000161520        0x0 /opt/gcc-linaro-7.5.0-arm-linux-gnueabihf/bin/../arm-linux-gnueabihf/libc/usr/lib/crti.o
 .bss           0x0000000000161520        0x1 /opt/gcc-linaro-7.5.0-arm-linux-gnueabihf/bin/../lib/gcc/arm-linux-gnueabihf/7.5.0/crtbegin.o
 .bss           0x0000000000161521        0x0 os_main.o
 *fill*         0x0000000000161521        0x3 
 .bss           0x0000000000161524        0x4 /home/zhurish/workspace/working/zpl-source/source/debug/lib/libbase.a(log.o)
                0x0000000000161524                zlog_default
 .bss           0x0000000000161528        0x0 /home/zhurish/workspace/working/zpl-source/source/debug/lib/libbase.a(module.o)
 .bss           0x0000000000161528      0xc58 /home/zhurish/workspace/working/zpl-source/source/debug/lib/libbase.a(memory.o)
 .bss           0x0000000000162180        0x0 /home/zhurish/workspace/working/zpl-source/source/debug/lib/libbase.a(memtypes.o)
 .bss           0x0000000000162180        0x8 /home/zhurish/workspace/working/zpl-source/source/debug/lib/libbase.a(command.o)
                0x0000000000162180                cmdvec
                0x0000000000162184                command_cr
 .bss           0x0000000000162188        0x0 /home/zhurish/workspace/working/zpl-source/source/debug/lib/libbase.a(cli_node.o)
 .bss           0x0000000000162188        0x0 /home/zhurish/workspace/working/zpl-source/source/debug/lib/libbase.a(host.o)
 .bss           0x0000000000162188        0x0 /home/zhurish/workspace/working/zpl-source/source/debug/lib/libbase.a(cmd_host.o)
 .bss           0x0000000000162188        0x0 /home/zhurish/workspace/working/zpl-source/source/debug/lib/libbase.a(hash.o)
 .bss           0x0000000000162188       0x94 /home/zhurish/workspace/working/zpl-source/source/debug/lib/libbase.a(str.o)
 .bss           0x000000000016221c        0x0 /home/zhurish/workspace/working/zpl-source/source/debug/lib/libbase.a(moduletypes.o)
 .bss           0x000000000016221c       0xf0 /home/zhurish/workspace/working/zpl-source/source/debug/lib/libbase.a(prefix.o)
 .bss           0x000000000016230c        0x0 /home/zhurish/workspace/working/zpl-source/source/debug/lib/libbase.a(vector.o)
 .bss           0x000000000016230c       0x14 /home/zhurish/workspace/working/zpl-source/source/debug/lib/libbase.a(workqueue.o)
 .bss           0x0000000000162320       0x10 /home/zhurish/workspace/working/zpl-source/source/debug/lib/libbase.a(thread.o)
 .bss           0x0000000000162330        0x0 /home/zhurish/workspace/working/zpl-source/source/debug/lib/libbase.a(linklist.o)
 .bss           0x0000000000162330        0x0 /home/zhurish/workspace/working/zpl-source/source/debug/lib/libbase.a(pqueue.o)
 .bss           0x0000000000162330        0x0 /home/zhurish/workspace/working/zpl-source/source/debug/lib/libnsm.a(moduletable.o)
 .bss           0x0000000000162330       0x10 /home/zhurish/workspace/working/zpl-source/source/debug/lib/libnsm.a(nsm_main.o)
 .bss           0x0000000000162340      0x134 /home/zhurish/workspace/working/zpl-source/source/debug/lib/libnsm.a(nsm_interface.o)
 .bss           0x0000000000162474        0x9 /home/zhurish/workspace/working/zpl-source/source/debug/lib/libnsm.a(nsm_8021x.o)
 *fill*         0x000000000016247d        0x3 
 .bss           0x0000000000162480       0x28 /home/zhurish/workspace/working/zpl-source/source/debug/lib/libnsm.a(nsm_arp.o)
 .bss           0x00000000001624a8        0x0 /home/zhurish/workspace/working/zpl-source/source/debug/lib/libnsm.a(nsm_bridge.o)
 .bss           0x00000000001624a8       0xa0 /home/zhurish/workspace/working/zpl-source/source/debug/lib/libnsm.a(nsm_dns.o)
 .bss           0x0000000000162548       0x1e /home/zhurish/workspace/working/zpl-source/source/debug/lib/libnsm.a(nsm_dos.o)
 *fill*         0x0000000000162566        0x2 
 .bss           0x0000000000162568       0xa9 /home/zhurish/workspace/working/zpl-source/source/debug/lib/libnsm.a(nsm_firewalld.o)
 *fill*         0x0000000000162611        0x3 
 .bss           0x0000000000162614       0x1e /home/zhurish/workspace/working/zpl-source/source/debug/lib/libnsm.a(nsm_mac.o)
 *fill*         0x0000000000162632        0x2 
 .bss           0x0000000000162634        0x9 /home/zhurish/workspace/working/zpl-source/source/debug/lib/libnsm.a(nsm_vlan.o)
 *fill*         0x000000000016263d        0x3 
 .bss           0x0000000000162640       0x6b /home/zhurish/workspace/working/zpl-source/source/debug/lib/libnsm.a(nsm_qos.o)
 *fill*         0x00000000001626ab        0x1 
 .bss           0x00000000001626ac       0x4c /home/zhurish/workspace/working/zpl-source/source/debug/lib/libnsm.a(nsm_qos_acl.o)
 .bss           0x00000000001626f8        0x9 /home/zhurish/workspace/working/zpl-source/source/debug/lib/libnsm.a(nsm_trunk.o)
 *fill*         0x0000000000162701        0x3 
 .bss           0x0000000000162704      0x1de /home/zhurish/workspace/working/zpl-source/source/debug/lib/libnsm.a(nsm_mirror.o)
 *fill*         0x00000000001628e2        0x2 
 .bss           0x00000000001628e4        0xc /home/zhurish/workspace/working/zpl-source/source/debug/lib/libnsm.a(nsm_tunnel.o)
 .bss           0x00000000001628f0        0x0 /home/zhurish/workspace/working/zpl-source/source/debug/lib/libnsm.a(nsm_serial.o)
 .bss           0x00000000001628f0        0x0 /home/zhurish/workspace/working/zpl-source/source/debug/lib/libnsm.a(nsm_ppp.o)
 .bss           0x00000000001628f0        0x0 /home/zhurish/workspace/working/zpl-source/source/debug/lib/libnsm.a(nsm_security.o)
 .bss           0x00000000001628f0        0x0 /home/zhurish/workspace/working/zpl-source/source/debug/lib/libnsm.a(nsm_vlaneth.o)
 .bss           0x00000000001628f0        0x0 /home/zhurish/workspace/working/zpl-source/source/debug/lib/libnsm.a(cmd_interface.o)
 .bss           0x00000000001628f0        0x0 /home/zhurish/workspace/working/zpl-source/source/debug/lib/libnsm.a(cmd_routerid.o)
 .bss           0x00000000001628f0        0x0 /home/zhurish/workspace/working/zpl-source/source/debug/lib/libnsm.a(cmd_port.o)
 .bss           0x00000000001628f0        0x0 /home/zhurish/workspace/working/zpl-source/source/debug/lib/libnsm.a(cmd_route.o)
 .bss           0x00000000001628f0        0x0 /home/zhurish/workspace/working/zpl-source/source/debug/lib/libnsm.a(cmd_dot1x.o)
 .bss           0x00000000001628f0        0x0 /home/zhurish/workspace/working/zpl-source/source/debug/lib/libnsm.a(cmd_arp.o)
 .bss           0x00000000001628f0        0x0 /home/zhurish/workspace/working/zpl-source/source/debug/lib/libnsm.a(cmd_bridge.o)
 .bss           0x00000000001628f0        0x0 /home/zhurish/workspace/working/zpl-source/source/debug/lib/libnsm.a(cmd_dns.o)
 .bss           0x00000000001628f0        0x0 /home/zhurish/workspace/working/zpl-source/source/debug/lib/libnsm.a(cmd_dos.o)
 .bss           0x00000000001628f0        0x0 /home/zhurish/workspace/working/zpl-source/source/debug/lib/libnsm.a(cmd_mac.o)
 .bss           0x00000000001628f0        0x0 /home/zhurish/workspace/working/zpl-source/source/debug/lib/libnsm.a(cmd_vlan.o)
 .bss           0x00000000001628f0        0x0 /home/zhurish/workspace/working/zpl-source/source/debug/lib/libnsm.a(cmd_qos.o)
 .bss           0x00000000001628f0        0x0 /home/zhurish/workspace/working/zpl-source/source/debug/lib/libnsm.a(cmd_qos_acl.o)
 .bss           0x00000000001628f0        0x0 /home/zhurish/workspace/working/zpl-source/source/debug/lib/libnsm.a(cmd_trunk.o)
 .bss           0x00000000001628f0        0x0 /home/zhurish/workspace/working/zpl-source/source/debug/lib/libnsm.a(cmd_mirror.o)
 .bss           0x00000000001628f0        0x0 /home/zhurish/workspace/working/zpl-source/source/debug/lib/libnsm.a(cmd_tunnel.o)
 .bss           0x00000000001628f0        0x0 /home/zhurish/workspace/working/zpl-source/source/debug/lib/libnsm.a(cmd_serial.o)
 .bss           0x00000000001628f0        0x0 /home/zhurish/workspace/working/zpl-source/source/debug/lib/libnsm.a(cmd_ppp.o)
 .bss           0x00000000001628f0        0x0 /home/zhurish/workspace/working/zpl-source/source/debug/lib/libnsm.a(nsm_halpal.o)
 .bss           0x00000000001628f0        0x0 /home/zhurish/workspace/working/zpl-source/source/debug/lib/libnsm.a(nsm_pal.o)
 .bss           0x00000000001628f0       0x40 /home/zhurish/workspace/working/zpl-source/source/debug/lib/libos.a(os_ipstack.o)
 .bss           0x0000000000162930       0x14 /home/zhurish/workspace/working/zpl-source/source/debug/lib/libos.a(os_job.o)
 .bss           0x0000000000162944        0x0 /home/zhurish/workspace/working/zpl-source/source/debug/lib/libos.a(os_list.o)
 .bss           0x0000000000162944        0x0 /home/zhurish/workspace/working/zpl-source/source/debug/lib/libos.a(os_sem.o)
 .bss           0x0000000000162944      0x134 /home/zhurish/workspace/working/zpl-source/source/debug/lib/libos.a(os_task.o)
 .bss           0x0000000000162a78      0x2dc /home/zhurish/workspace/working/zpl-source/source/debug/lib/libos.a(os_time.o)
 .bss           0x0000000000162d54       0x80 /home/zhurish/workspace/working/zpl-source/source/debug/lib/libos.a(os_util.o)
 .bss           0x0000000000162dd4        0x0 /home/zhurish/workspace/working/zpl-source/source/debug/lib/libos.a(os_socket.o)
 .bss           0x0000000000162dd4        0x0 /home/zhurish/workspace/working/zpl-source/source/debug/lib/libos.a(os_process.o)
 .bss           0x0000000000162dd4       0xc4 /home/zhurish/workspace/working/zpl-source/source/debug/lib/libos.a(os_file.o)
 .bss           0x0000000000162e98        0x0 /home/zhurish/workspace/working/zpl-source/source/debug/lib/libos.a(os_signal.o)
 .bss           0x0000000000162e98      0x210 /home/zhurish/workspace/working/zpl-source/source/debug/lib/libos.a(os_backtrace.o)
 .bss           0x00000000001630a8        0x0 /home/zhurish/workspace/working/zpl-source/source/debug/lib/libos.a(libnetpro.o)
 .bss           0x00000000001630a8        0x0 /home/zhurish/workspace/working/zpl-source/source/debug/lib/libos.a(zpl_errno.o)
 .bss           0x00000000001630a8        0x8 /home/zhurish/workspace/working/zpl-source/source/debug/lib/libpal.a(pal_driver.o)
 .bss           0x00000000001630b0        0x0 /home/zhurish/workspace/working/zpl-source/source/debug/lib/libpal.a(kernel_packet.o)
 .bss           0x00000000001630b0        0x0 /home/zhurish/workspace/working/zpl-source/source/debug/lib/libpal.a(kernel_arp.o)
 .bss           0x00000000001630b0        0x0 /home/zhurish/workspace/working/zpl-source/source/debug/lib/libpal.a(kernel_ipforward.o)
 .bss           0x00000000001630b0        0x0 /home/zhurish/workspace/working/zpl-source/source/debug/lib/libpal.a(kernel_driver.o)
 .bss           0x00000000001630b0        0x0 /home/zhurish/workspace/working/zpl-source/source/debug/lib/libpal.a(kernel_ioctl.o)
 .bss           0x00000000001630b0     0x1000 /home/zhurish/workspace/working/zpl-source/source/debug/lib/libpal.a(kernel_vrf.o)
 .bss           0x00000000001640b0        0x0 /home/zhurish/workspace/working/zpl-source/source/debug/lib/libpal.a(kernel_nladdress.o)
 .bss           0x00000000001640b0        0x0 /home/zhurish/workspace/working/zpl-source/source/debug/lib/libpal.a(kernel_nliface.o)
 .bss           0x00000000001640b0        0x0 /home/zhurish/workspace/working/zpl-source/source/debug/lib/libpal.a(kernel_firewalld.o)
 .bss           0x00000000001640b0        0x8 /home/zhurish/workspace/working/zpl-source/source/debug/lib/libpal.a(kernel_netlink.o)
 .bss           0x00000000001640b8        0x0 /home/zhurish/workspace/working/zpl-source/source/debug/lib/libproduct.a(hal_client.o)
 .bss           0x00000000001640b8        0x0 /home/zhurish/workspace/working/zpl-source/source/debug/lib/libproduct.a(bsp_driver.o)
 .bss           0x00000000001640b8        0x0 /home/zhurish/workspace/working/zpl-source/source/debug/lib/libproduct.a(bsp_global.o)
 .bss           0x00000000001640b8        0x0 /home/zhurish/workspace/working/zpl-source/source/debug/lib/libproduct.a(bsp_port.o)
 .bss           0x00000000001640b8        0x0 /home/zhurish/workspace/working/zpl-source/source/debug/lib/libproduct.a(bsp_mstp.o)
 .bss           0x00000000001640b8        0x0 /home/zhurish/workspace/working/zpl-source/source/debug/lib/libproduct.a(bsp_8021x.o)
 .bss           0x00000000001640b8        0x0 /home/zhurish/workspace/working/zpl-source/source/debug/lib/libproduct.a(bsp_dos.o)
 .bss           0x00000000001640b8        0x0 /home/zhurish/workspace/working/zpl-source/source/debug/lib/libproduct.a(bsp_mac.o)
 .bss           0x00000000001640b8        0x0 /home/zhurish/workspace/working/zpl-source/source/debug/lib/libproduct.a(bsp_vlan.o)
 .bss           0x00000000001640b8        0x0 /home/zhurish/workspace/working/zpl-source/source/debug/lib/libproduct.a(bsp_qinq.o)
 .bss           0x00000000001640b8        0x0 /home/zhurish/workspace/working/zpl-source/source/debug/lib/libproduct.a(bsp_qos.o)
 .bss           0x00000000001640b8        0x0 /home/zhurish/workspace/working/zpl-source/source/debug/lib/libproduct.a(bsp_trunk.o)
 .bss           0x00000000001640b8        0x0 /home/zhurish/workspace/working/zpl-source/source/debug/lib/libproduct.a(bsp_mirror.o)
 .bss           0x00000000001640b8        0x0 /home/zhurish/workspace/working/zpl-source/source/debug/lib/libproduct.a(bsp_cpu.o)
 .bss           0x00000000001640b8       0x1c /home/zhurish/workspace/working/zpl-source/source/debug/lib/librtpl.a(nsm_rib.o)
                0x00000000001640b8                nsm_ribd
 .bss           0x00000000001640d4        0x0 /home/zhurish/workspace/working/zpl-source/source/debug/lib/librtpl.a(router-id.o)
 .bss           0x00000000001640d4        0x0 /home/zhurish/workspace/working/zpl-source/source/debug/lib/librtpl.a(nsm_redistribute.o)
 .bss           0x00000000001640d4       0x78 /home/zhurish/workspace/working/zpl-source/source/debug/lib/librtpl.a(nsm_zserv.o)
                0x00000000001640d4                nsm_srv
 .bss           0x000000000016414c        0x0 /home/zhurish/workspace/working/zpl-source/source/debug/lib/librtpl.a(nsm_rnh.o)
 .bss           0x000000000016414c        0x0 /home/zhurish/workspace/working/zpl-source/source/debug/lib/libsdk.a(sdk_driver.o)
 .bss           0x000000000016414c        0x0 /home/zhurish/workspace/working/zpl-source/source/debug/lib/libsdk.a(b53_mac_tbl.o)
 .bss           0x000000000016414c        0x0 /home/zhurish/workspace/working/zpl-source/source/debug/lib/libsdk.a(b53_driver.o)
 .bss           0x000000000016414c        0x0 /home/zhurish/workspace/working/zpl-source/source/debug/lib/libsdk.a(b53_mdio.o)
 .bss           0x000000000016414c        0x0 /home/zhurish/workspace/working/zpl-source/source/debug/lib/libsdk.a(b53_global.o)
 .bss           0x000000000016414c        0x0 /home/zhurish/workspace/working/zpl-source/source/debug/lib/libsdk.a(b53_dos.o)
 .bss           0x000000000016414c        0x0 /home/zhurish/workspace/working/zpl-source/source/debug/lib/libsdk.a(b53_mirror.o)
 .bss           0x000000000016414c        0x0 /home/zhurish/workspace/working/zpl-source/source/debug/lib/libsdk.a(b53_port.o)
 .bss           0x000000000016414c        0x0 /home/zhurish/workspace/working/zpl-source/source/debug/lib/libsdk.a(b53_stp.o)
 .bss           0x000000000016414c        0x0 /home/zhurish/workspace/working/zpl-source/source/debug/lib/libsdk.a(b53_trunk.o)
 .bss           0x000000000016414c        0x0 /home/zhurish/workspace/working/zpl-source/source/debug/lib/libsdk.a(b53_vlan.o)
 .bss           0x000000000016414c        0x0 /home/zhurish/workspace/working/zpl-source/source/debug/lib/libsdk.a(b53_qos.o)
 .bss           0x000000000016414c        0x0 /home/zhurish/workspace/working/zpl-source/source/debug/lib/libsdk.a(b53_rate.o)
 .bss           0x000000000016414c        0x0 /home/zhurish/workspace/working/zpl-source/source/debug/lib/libsdk.a(b53_eap.o)
 .bss           0x000000000016414c        0x0 /home/zhurish/workspace/working/zpl-source/source/debug/lib/libsdk.a(b53_phy.o)
 .bss           0x000000000016414c        0x0 /home/zhurish/workspace/working/zpl-source/source/debug/lib/libsdk.a(b53_cpu.o)
 .bss           0x000000000016414c        0x0 /home/zhurish/workspace/working/zpl-source/source/debug/lib/libshell.a(vty_user.o)
 .bss           0x000000000016414c       0x64 /home/zhurish/workspace/working/zpl-source/source/debug/lib/libshell.a(vty.o)
 .bss           0x00000000001641b0        0x0 /home/zhurish/workspace/working/zpl-source/source/debug/lib/libstartup.a(os_start.o)
 .bss           0x00000000001641b0        0x0 /home/zhurish/workspace/working/zpl-source/source/debug/lib/libstartup.a(os_module.o)
 .bss           0x00000000001641b0        0x0 /home/zhurish/workspace/working/zpl-source/source/debug/lib/libstartup.a(os_test.o)
 .bss           0x00000000001641b0       0x48 /home/zhurish/workspace/working/zpl-source/source/debug/lib/libuci.a(os_uci.o)
 .bss           0x00000000001641f8        0x0 /home/zhurish/workspace/working/zpl-source/source/debug/lib/libuci.a(delta.o)
 .bss           0x00000000001641f8        0x0 /home/zhurish/workspace/working/zpl-source/source/debug/lib/libuci.a(file.o)
 .bss           0x00000000001641f8        0x0 /home/zhurish/workspace/working/zpl-source/source/debug/lib/libuci.a(util.o)
 .bss           0x00000000001641f8       0x80 /home/zhurish/workspace/working/zpl-source/source/debug/lib/libuci.a(libuci.o)
 .bss           0x0000000000164278        0x0 /home/zhurish/workspace/working/zpl-source/source/debug/lib/libbase.a(md5.o)
 .bss           0x0000000000164278        0x0 /home/zhurish/workspace/working/zpl-source/source/debug/lib/libbase.a(sockunion.o)
 .bss           0x0000000000164278        0x0 /home/zhurish/workspace/working/zpl-source/source/debug/lib/libbase.a(pid_output.o)
 .bss           0x0000000000164278        0x4 /home/zhurish/workspace/working/zpl-source/source/debug/lib/libbase.a(buffer.o)
 .bss           0x000000000016427c        0x8 /home/zhurish/workspace/working/zpl-source/source/debug/lib/libbase.a(template.o)
 .bss           0x0000000000164284        0x0 /home/zhurish/workspace/working/zpl-source/source/debug/lib/libbase.a(stream.o)
 .bss           0x0000000000164284        0x0 /home/zhurish/workspace/working/zpl-source/source/debug/lib/libbase.a(nexthop.o)
 .bss           0x0000000000164284        0x0 /home/zhurish/workspace/working/zpl-source/source/debug/lib/libbase.a(table.o)
 .bss           0x0000000000164284        0x0 /home/zhurish/workspace/working/zpl-source/source/debug/lib/libbase.a(connected.o)
 .bss           0x0000000000164284     0x2018 /home/zhurish/workspace/working/zpl-source/source/debug/lib/libbase.a(if.o)
                0x0000000000164284                if_master
 .bss           0x000000000016629c       0x28 /home/zhurish/workspace/working/zpl-source/source/debug/lib/libbase.a(nsm_vrf.o)
                0x000000000016629c                vrf_master
 .bss           0x00000000001662c4       0xe0 /home/zhurish/workspace/working/zpl-source/source/debug/lib/libbase.a(if_name.o)
 .bss           0x00000000001663a4       0x1c /home/zhurish/workspace/working/zpl-source/source/debug/lib/libbase.a(nsm_event.o)
 .bss           0x00000000001663c0        0x0 /home/zhurish/workspace/working/zpl-source/source/debug/lib/libbase.a(keychain.o)
 .bss           0x00000000001663c0      0x168 /home/zhurish/workspace/working/zpl-source/source/debug/lib/libbase.a(filter.o)
 .bss           0x0000000000166528        0x0 /home/zhurish/workspace/working/zpl-source/source/debug/lib/libbase.a(plist.o)
 .bss           0x0000000000166528        0x0 /home/zhurish/workspace/working/zpl-source/source/debug/lib/libbase.a(cmd_log.o)
 .bss           0x0000000000166528        0x0 /home/zhurish/workspace/working/zpl-source/source/debug/lib/libbase.a(cmd_memory.o)
 .bss           0x0000000000166528        0x0 /home/zhurish/workspace/working/zpl-source/source/debug/lib/libbase.a(jhash.o)
 .bss           0x0000000000166528        0x0 /home/zhurish/workspace/working/zpl-source/source/debug/lib/libbase.a(network.o)
 .bss           0x0000000000166528      0x100 /home/zhurish/workspace/working/zpl-source/source/debug/lib/libhal.a(hal_ipccmd.o)
 .bss           0x0000000000166628        0x0 /home/zhurish/workspace/working/zpl-source/source/debug/lib/libhal.a(hal_ipcmsg.o)
 .bss           0x0000000000166628        0x0 /home/zhurish/workspace/working/zpl-source/source/debug/lib/libhal.a(hal_port.o)
 .bss           0x0000000000166628        0x0 /home/zhurish/workspace/working/zpl-source/source/debug/lib/libhal.a(hal_misc.o)
 .bss           0x0000000000166628        0x0 /home/zhurish/workspace/working/zpl-source/source/debug/lib/libhal.a(hal_mstp.o)
 .bss           0x0000000000166628        0x0 /home/zhurish/workspace/working/zpl-source/source/debug/lib/libhal.a(hal_dos.o)
 .bss           0x0000000000166628        0x0 /home/zhurish/workspace/working/zpl-source/source/debug/lib/libhal.a(hal_mac.o)
 .bss           0x0000000000166628        0x0 /home/zhurish/workspace/working/zpl-source/source/debug/lib/libhal.a(hal_vlan.o)
 .bss           0x0000000000166628        0x0 /home/zhurish/workspace/working/zpl-source/source/debug/lib/libhal.a(hal_trunk.o)
 .bss           0x0000000000166628        0x0 /home/zhurish/workspace/working/zpl-source/source/debug/lib/libhal.a(hal_mirror.o)
 .bss           0x0000000000166628        0x8 /home/zhurish/workspace/working/zpl-source/source/debug/lib/libhal.a(hal_driver.o)
 .bss           0x0000000000166630        0x0 /home/zhurish/workspace/working/zpl-source/source/debug/lib/libhal.a(hal_test.o)
 .bss           0x0000000000166630        0x0 /home/zhurish/workspace/working/zpl-source/source/debug/lib/libhal.a(hal_global.o)
 .bss           0x0000000000166630        0x0 /home/zhurish/workspace/working/zpl-source/source/debug/lib/libhal.a(hal_ipcsrv.o)
 .bss           0x0000000000166630        0x0 /home/zhurish/workspace/working/zpl-source/source/debug/lib/libipcbc.a(if_manage.o)
 .bss           0x0000000000166630        0xc /home/zhurish/workspace/working/zpl-source/source/debug/lib/libipcbc.a(bmgt.o)
                0x0000000000166630                _bmgt_debug
 .bss           0x000000000016663c        0x0 /home/zhurish/workspace/working/zpl-source/source/debug/lib/libipcbc.a(if_ktest.o)
 .bss           0x000000000016663c        0x0 /home/zhurish/workspace/working/zpl-source/source/debug/lib/libnsm.a(nsm_debug.o)
 .bss           0x000000000016663c        0x8 /home/zhurish/workspace/working/zpl-source/source/debug/lib/libos.a(os_nvram.o)
 .bss           0x0000000000166644        0x0 /home/zhurish/workspace/working/zpl-source/source/debug/lib/libos.a(tty_com.o)
 .bss           0x0000000000166644        0x0 /home/zhurish/workspace/working/zpl-source/source/debug/lib/libos.a(cmd_os.o)
 .bss           0x0000000000166644        0x0 /home/zhurish/workspace/working/zpl-source/source/debug/lib/libos.a(cmd_nvram_env.o)
 .bss           0x0000000000166644        0x0 /home/zhurish/workspace/working/zpl-source/source/debug/lib/libos.a(os_message.o)
 .bss           0x0000000000166644        0x0 /home/zhurish/workspace/working/zpl-source/source/debug/lib/libshell.a(cmd_vty.o)
 .bss           0x0000000000166644        0x0 /home/zhurish/workspace/working/zpl-source/source/debug/lib/libshell.a(cmd_user_vty.o)
 .bss           0x0000000000166644        0x0 /opt/gcc-linaro-7.5.0-arm-linux-gnueabihf/bin/../arm-linux-gnueabihf/libc/usr/lib/libc_nonshared.a(elf-init.oS)
 .bss           0x0000000000166644        0x0 /opt/gcc-linaro-7.5.0-arm-linux-gnueabihf/bin/../arm-linux-gnueabihf/libc/usr/lib/libc_nonshared.a(stat.oS)
 .bss           0x0000000000166644        0x0 /opt/gcc-linaro-7.5.0-arm-linux-gnueabihf/bin/../lib/gcc/arm-linux-gnueabihf/7.5.0/crtend.o
 .bss           0x0000000000166644        0x0 /opt/gcc-linaro-7.5.0-arm-linux-gnueabihf/bin/../arm-linux-gnueabihf/libc/usr/lib/crtn.o
 *(COMMON)
 COMMON         0x0000000000166644       0x34 os_main.o
                0x0000000000166644                __packed
                0x000000000016664c                main_data
 COMMON         0x0000000000166678       0x18 /home/zhurish/workspace/working/zpl-source/source/debug/lib/libbase.a(command.o)
                0x0000000000166678                token_cr
 COMMON         0x0000000000166690       0x92 /home/zhurish/workspace/working/zpl-source/source/debug/lib/libbase.a(host.o)
                0x0000000000166690                _global_host
 *fill*         0x0000000000166722        0x2 
 COMMON         0x0000000000166724      0x190 /home/zhurish/workspace/working/zpl-source/source/debug/lib/libnsm.a(cmd_route.o)
                0x0000000000166724                proto_rm
 *fill*         0x00000000001668b4        0x4 
 COMMON         0x00000000001668b8       0x18 /home/zhurish/workspace/working/zpl-source/source/debug/lib/libos.a(os_task.o)
                0x00000000001668b8                total_cpu
 COMMON         0x00000000001668d0      0x310 /home/zhurish/workspace/working/zpl-source/source/debug/lib/libos.a(os_signal.o)
                0x00000000001668d0                os_sigproc_tbl
 COMMON         0x0000000000166be0       0xa8 /home/zhurish/workspace/working/zpl-source/source/debug/lib/libpal.a(pal_driver.o)
                0x0000000000166be0                pal_stack
 COMMON         0x0000000000166c88       0x28 /home/zhurish/workspace/working/zpl-source/source/debug/lib/libproduct.a(bsp_driver.o)
                0x0000000000166c88                bsp_driver
 COMMON         0x0000000000166cb0       0x20 /home/zhurish/workspace/working/zpl-source/source/debug/lib/libproduct.a(bsp_global.o)
                0x0000000000166cb0                sdk_global
 COMMON         0x0000000000166cd0       0x54 /home/zhurish/workspace/working/zpl-source/source/debug/lib/libproduct.a(bsp_port.o)
                0x0000000000166cd0                sdk_port
 COMMON         0x0000000000166d24       0x1c /home/zhurish/workspace/working/zpl-source/source/debug/lib/libproduct.a(bsp_mstp.o)
                0x0000000000166d24                sdk_mstp
 COMMON         0x0000000000166d40       0x10 /home/zhurish/workspace/working/zpl-source/source/debug/lib/libproduct.a(bsp_8021x.o)
                0x0000000000166d40                sdk_8021x_cb
 COMMON         0x0000000000166d50       0x10 /home/zhurish/workspace/working/zpl-source/source/debug/lib/libproduct.a(bsp_dos.o)
                0x0000000000166d50                sdk_dos
 COMMON         0x0000000000166d60       0x14 /home/zhurish/workspace/working/zpl-source/source/debug/lib/libproduct.a(bsp_mac.o)
                0x0000000000166d60                sdk_maccb
 COMMON         0x0000000000166d74       0x34 /home/zhurish/workspace/working/zpl-source/source/debug/lib/libproduct.a(bsp_vlan.o)
                0x0000000000166d74                sdk_vlan
 COMMON         0x0000000000166da8        0xc /home/zhurish/workspace/working/zpl-source/source/debug/lib/libproduct.a(bsp_qinq.o)
                0x0000000000166da8                sdk_qinq
 COMMON         0x0000000000166db4       0x30 /home/zhurish/workspace/working/zpl-source/source/debug/lib/libproduct.a(bsp_qos.o)
                0x0000000000166db4                sdk_qos
 COMMON         0x0000000000166de4       0x14 /home/zhurish/workspace/working/zpl-source/source/debug/lib/libproduct.a(bsp_trunk.o)
                0x0000000000166de4                sdk_trunk
 COMMON         0x0000000000166df8        0xc /home/zhurish/workspace/working/zpl-source/source/debug/lib/libproduct.a(bsp_mirror.o)
                0x0000000000166df8                sdk_mirror
 COMMON         0x0000000000166e04       0x14 /home/zhurish/workspace/working/zpl-source/source/debug/lib/libproduct.a(bsp_cpu.o)
                0x0000000000166e04                sdk_cpu_cb
 COMMON         0x0000000000166e18        0x4 /home/zhurish/workspace/working/zpl-source/source/debug/lib/libsdk.a(sdk_driver.o)
                0x0000000000166e18                __msdkdriver
 COMMON         0x0000000000166e1c      0x10c /home/zhurish/workspace/working/zpl-source/source/debug/lib/libshell.a(vty.o)
                0x0000000000166e1c                cli_shell
 COMMON         0x0000000000166f28        0x4 /home/zhurish/workspace/working/zpl-source/source/debug/lib/libbase.a(keychain.o)
                0x0000000000166f28                keychain_list
 COMMON         0x0000000000166f2c       0x40 /home/zhurish/workspace/working/zpl-source/source/debug/lib/libhal.a(hal_ipcsrv.o)
                0x0000000000166f2c                _ipcsrv
 COMMON         0x0000000000166f6c        0xc /home/zhurish/workspace/working/zpl-source/source/debug/lib/libnsm.a(nsm_debug.o)
                0x0000000000166f6c                zebra_debug_nht
                0x0000000000166f70                zebra_debug_event
                0x0000000000166f74                zebra_debug_fpm
                0x0000000000166f78                . = ALIGN ((. != 0x0)?0x4:0x1)
                0x0000000000166f78                _bss_end__ = .
                0x0000000000166f78                __bss_end__ = .
                0x0000000000166f78                . = ALIGN (0x4)
                0x0000000000166f78                . = SEGMENT_START ("ldata-segment", .)
                0x0000000000166f78                . = ALIGN (0x4)
                0x0000000000166f78                __end__ = .
                0x0000000000166f78                _end = .
                [!provide]                        PROVIDE (end, .)
                0x0000000000166f78                . = DATA_SEGMENT_END (.)

.stab
 *(.stab)

.stabstr
 *(.stabstr)

.stab.excl
 *(.stab.excl)

.stab.exclstr
 *(.stab.exclstr)

.stab.index
 *(.stab.index)

.stab.indexstr
 *(.stab.indexstr)

.comment        0x0000000000000000       0x24
 *(.comment)
 .comment       0x0000000000000000       0x24 /opt/gcc-linaro-7.5.0-arm-linux-gnueabihf/bin/../arm-linux-gnueabihf/libc/usr/lib/crt1.o
                                         0x25 (size before relaxing)
 .comment       0x0000000000000024       0x25 /opt/gcc-linaro-7.5.0-arm-linux-gnueabihf/bin/../lib/gcc/arm-linux-gnueabihf/7.5.0/crtbegin.o
 .comment       0x0000000000000024       0x25 os_main.o
 .comment       0x0000000000000024       0x25 /home/zhurish/workspace/working/zpl-source/source/debug/lib/libbase.a(log.o)
 .comment       0x0000000000000024       0x25 /home/zhurish/workspace/working/zpl-source/source/debug/lib/libbase.a(module.o)
 .comment       0x0000000000000024       0x25 /home/zhurish/workspace/working/zpl-source/source/debug/lib/libbase.a(memory.o)
 .comment       0x0000000000000024       0x25 /home/zhurish/workspace/working/zpl-source/source/debug/lib/libbase.a(memtypes.o)
 .comment       0x0000000000000024       0x25 /home/zhurish/workspace/working/zpl-source/source/debug/lib/libbase.a(command.o)
 .comment       0x0000000000000024       0x25 /home/zhurish/workspace/working/zpl-source/source/debug/lib/libbase.a(cli_node.o)
 .comment       0x0000000000000024       0x25 /home/zhurish/workspace/working/zpl-source/source/debug/lib/libbase.a(host.o)
 .comment       0x0000000000000024       0x25 /home/zhurish/workspace/working/zpl-source/source/debug/lib/libbase.a(cmd_host.o)
 .comment       0x0000000000000024       0x25 /home/zhurish/workspace/working/zpl-source/source/debug/lib/libbase.a(hash.o)
 .comment       0x0000000000000024       0x25 /home/zhurish/workspace/working/zpl-source/source/debug/lib/libbase.a(str.o)
 .comment       0x0000000000000024       0x25 /home/zhurish/workspace/working/zpl-source/source/debug/lib/libbase.a(moduletypes.o)
 .comment       0x0000000000000024       0x25 /home/zhurish/workspace/working/zpl-source/source/debug/lib/libbase.a(prefix.o)
 .comment       0x0000000000000024       0x25 /home/zhurish/workspace/working/zpl-source/source/debug/lib/libbase.a(vector.o)
 .comment       0x0000000000000024       0x25 /home/zhurish/workspace/working/zpl-source/source/debug/lib/libbase.a(workqueue.o)
 .comment       0x0000000000000024       0x25 /home/zhurish/workspace/working/zpl-source/source/debug/lib/libbase.a(thread.o)
 .comment       0x0000000000000024       0x25 /home/zhurish/workspace/working/zpl-source/source/debug/lib/libbase.a(linklist.o)
 .comment       0x0000000000000024       0x25 /home/zhurish/workspace/working/zpl-source/source/debug/lib/libbase.a(pqueue.o)
 .comment       0x0000000000000024       0x25 /home/zhurish/workspace/working/zpl-source/source/debug/lib/libnsm.a(moduletable.o)
 .comment       0x0000000000000024       0x25 /home/zhurish/workspace/working/zpl-source/source/debug/lib/libnsm.a(nsm_main.o)
 .comment       0x0000000000000024       0x25 /home/zhurish/workspace/working/zpl-source/source/debug/lib/libnsm.a(nsm_interface.o)
 .comment       0x0000000000000024       0x25 /home/zhurish/workspace/working/zpl-source/source/debug/lib/libnsm.a(nsm_8021x.o)
 .comment       0x0000000000000024       0x25 /home/zhurish/workspace/working/zpl-source/source/debug/lib/libnsm.a(nsm_arp.o)
 .comment       0x0000000000000024       0x25 /home/zhurish/workspace/working/zpl-source/source/debug/lib/libnsm.a(nsm_bridge.o)
 .comment       0x0000000000000024       0x25 /home/zhurish/workspace/working/zpl-source/source/debug/lib/libnsm.a(nsm_dns.o)
 .comment       0x0000000000000024       0x25 /home/zhurish/workspace/working/zpl-source/source/debug/lib/libnsm.a(nsm_dos.o)
 .comment       0x0000000000000024       0x25 /home/zhurish/workspace/working/zpl-source/source/debug/lib/libnsm.a(nsm_firewalld.o)
 .comment       0x0000000000000024       0x25 /home/zhurish/workspace/working/zpl-source/source/debug/lib/libnsm.a(nsm_mac.o)
 .comment       0x0000000000000024       0x25 /home/zhurish/workspace/working/zpl-source/source/debug/lib/libnsm.a(nsm_vlan.o)
 .comment       0x0000000000000024       0x25 /home/zhurish/workspace/working/zpl-source/source/debug/lib/libnsm.a(nsm_qos.o)
 .comment       0x0000000000000024       0x25 /home/zhurish/workspace/working/zpl-source/source/debug/lib/libnsm.a(nsm_qos_acl.o)
 .comment       0x0000000000000024       0x25 /home/zhurish/workspace/working/zpl-source/source/debug/lib/libnsm.a(nsm_trunk.o)
 .comment       0x0000000000000024       0x25 /home/zhurish/workspace/working/zpl-source/source/debug/lib/libnsm.a(nsm_mirror.o)
 .comment       0x0000000000000024       0x25 /home/zhurish/workspace/working/zpl-source/source/debug/lib/libnsm.a(nsm_tunnel.o)
 .comment       0x0000000000000024       0x25 /home/zhurish/workspace/working/zpl-source/source/debug/lib/libnsm.a(nsm_serial.o)
 .comment       0x0000000000000024       0x25 /home/zhurish/workspace/working/zpl-source/source/debug/lib/libnsm.a(nsm_ppp.o)
 .comment       0x0000000000000024       0x25 /home/zhurish/workspace/working/zpl-source/source/debug/lib/libnsm.a(nsm_security.o)
 .comment       0x0000000000000024       0x25 /home/zhurish/workspace/working/zpl-source/source/debug/lib/libnsm.a(nsm_vlaneth.o)
 .comment       0x0000000000000024       0x25 /home/zhurish/workspace/working/zpl-source/source/debug/lib/libnsm.a(cmd_interface.o)
 .comment       0x0000000000000024       0x25 /home/zhurish/workspace/working/zpl-source/source/debug/lib/libnsm.a(cmd_routerid.o)
 .comment       0x0000000000000024       0x25 /home/zhurish/workspace/working/zpl-source/source/debug/lib/libnsm.a(cmd_port.o)
 .comment       0x0000000000000024       0x25 /home/zhurish/workspace/working/zpl-source/source/debug/lib/libnsm.a(cmd_route.o)
 .comment       0x0000000000000024       0x25 /home/zhurish/workspace/working/zpl-source/source/debug/lib/libnsm.a(cmd_dot1x.o)
 .comment       0x0000000000000024       0x25 /home/zhurish/workspace/working/zpl-source/source/debug/lib/libnsm.a(cmd_arp.o)
 .comment       0x0000000000000024       0x25 /home/zhurish/workspace/working/zpl-source/source/debug/lib/libnsm.a(cmd_bridge.o)
 .comment       0x0000000000000024       0x25 /home/zhurish/workspace/working/zpl-source/source/debug/lib/libnsm.a(cmd_dns.o)
 .comment       0x0000000000000024       0x25 /home/zhurish/workspace/working/zpl-source/source/debug/lib/libnsm.a(cmd_dos.o)
 .comment       0x0000000000000024       0x25 /home/zhurish/workspace/working/zpl-source/source/debug/lib/libnsm.a(cmd_mac.o)
 .comment       0x0000000000000024       0x25 /home/zhurish/workspace/working/zpl-source/source/debug/lib/libnsm.a(cmd_vlan.o)
 .comment       0x0000000000000024       0x25 /home/zhurish/workspace/working/zpl-source/source/debug/lib/libnsm.a(cmd_qos.o)
 .comment       0x0000000000000024       0x25 /home/zhurish/workspace/working/zpl-source/source/debug/lib/libnsm.a(cmd_qos_acl.o)
 .comment       0x0000000000000024       0x25 /home/zhurish/workspace/working/zpl-source/source/debug/lib/libnsm.a(cmd_trunk.o)
 .comment       0x0000000000000024       0x25 /home/zhurish/workspace/working/zpl-source/source/debug/lib/libnsm.a(cmd_mirror.o)
 .comment       0x0000000000000024       0x25 /home/zhurish/workspace/working/zpl-source/source/debug/lib/libnsm.a(cmd_tunnel.o)
 .comment       0x0000000000000024       0x25 /home/zhurish/workspace/working/zpl-source/source/debug/lib/libnsm.a(cmd_serial.o)
 .comment       0x0000000000000024       0x25 /home/zhurish/workspace/working/zpl-source/source/debug/lib/libnsm.a(cmd_ppp.o)
 .comment       0x0000000000000024       0x25 /home/zhurish/workspace/working/zpl-source/source/debug/lib/libnsm.a(nsm_halpal.o)
 .comment       0x0000000000000024       0x25 /home/zhurish/workspace/working/zpl-source/source/debug/lib/libnsm.a(nsm_pal.o)
 .comment       0x0000000000000024       0x25 /home/zhurish/workspace/working/zpl-source/source/debug/lib/libos.a(os_ipstack.o)
 .comment       0x0000000000000024       0x25 /home/zhurish/workspace/working/zpl-source/source/debug/lib/libos.a(os_job.o)
 .comment       0x0000000000000024       0x25 /home/zhurish/workspace/working/zpl-source/source/debug/lib/libos.a(os_list.o)
 .comment       0x0000000000000024       0x25 /home/zhurish/workspace/working/zpl-source/source/debug/lib/libos.a(os_sem.o)
 .comment       0x0000000000000024       0x25 /home/zhurish/workspace/working/zpl-source/source/debug/lib/libos.a(os_task.o)
 .comment       0x0000000000000024       0x25 /home/zhurish/workspace/working/zpl-source/source/debug/lib/libos.a(os_time.o)
 .comment       0x0000000000000024       0x25 /home/zhurish/workspace/working/zpl-source/source/debug/lib/libos.a(os_util.o)
 .comment       0x0000000000000024       0x25 /home/zhurish/workspace/working/zpl-source/source/debug/lib/libos.a(os_socket.o)
 .comment       0x0000000000000024       0x25 /home/zhurish/workspace/working/zpl-source/source/debug/lib/libos.a(os_process.o)
 .comment       0x0000000000000024       0x25 /home/zhurish/workspace/working/zpl-source/source/debug/lib/libos.a(os_file.o)
 .comment       0x0000000000000024       0x25 /home/zhurish/workspace/working/zpl-source/source/debug/lib/libos.a(os_signal.o)
 .comment       0x0000000000000024       0x25 /home/zhurish/workspace/working/zpl-source/source/debug/lib/libos.a(os_backtrace.o)
 .comment       0x0000000000000024       0x25 /home/zhurish/workspace/working/zpl-source/source/debug/lib/libos.a(libnetpro.o)
 .comment       0x0000000000000024       0x25 /home/zhurish/workspace/working/zpl-source/source/debug/lib/libos.a(zpl_errno.o)
 .comment       0x0000000000000024       0x25 /home/zhurish/workspace/working/zpl-source/source/debug/lib/libpal.a(pal_driver.o)
 .comment       0x0000000000000024       0x25 /home/zhurish/workspace/working/zpl-source/source/debug/lib/libpal.a(kernel_packet.o)
 .comment       0x0000000000000024       0x25 /home/zhurish/workspace/working/zpl-source/source/debug/lib/libpal.a(kernel_arp.o)
 .comment       0x0000000000000024       0x25 /home/zhurish/workspace/working/zpl-source/source/debug/lib/libpal.a(kernel_ipforward.o)
 .comment       0x0000000000000024       0x25 /home/zhurish/workspace/working/zpl-source/source/debug/lib/libpal.a(kernel_driver.o)
 .comment       0x0000000000000024       0x25 /home/zhurish/workspace/working/zpl-source/source/debug/lib/libpal.a(kernel_ioctl.o)
 .comment       0x0000000000000024       0x25 /home/zhurish/workspace/working/zpl-source/source/debug/lib/libpal.a(kernel_vrf.o)
 .comment       0x0000000000000024       0x25 /home/zhurish/workspace/working/zpl-source/source/debug/lib/libpal.a(kernel_nladdress.o)
 .comment       0x0000000000000024       0x25 /home/zhurish/workspace/working/zpl-source/source/debug/lib/libpal.a(kernel_nliface.o)
 .comment       0x0000000000000024       0x25 /home/zhurish/workspace/working/zpl-source/source/debug/lib/libpal.a(kernel_firewalld.o)
 .comment       0x0000000000000024       0x25 /home/zhurish/workspace/working/zpl-source/source/debug/lib/libpal.a(kernel_netlink.o)
 .comment       0x0000000000000024       0x25 /home/zhurish/workspace/working/zpl-source/source/debug/lib/libproduct.a(hal_client.o)
 .comment       0x0000000000000024       0x25 /home/zhurish/workspace/working/zpl-source/source/debug/lib/libproduct.a(bsp_driver.o)
 .comment       0x0000000000000024       0x25 /home/zhurish/workspace/working/zpl-source/source/debug/lib/libproduct.a(bsp_global.o)
 .comment       0x0000000000000024       0x25 /home/zhurish/workspace/working/zpl-source/source/debug/lib/libproduct.a(bsp_port.o)
 .comment       0x0000000000000024       0x25 /home/zhurish/workspace/working/zpl-source/source/debug/lib/libproduct.a(bsp_mstp.o)
 .comment       0x0000000000000024       0x25 /home/zhurish/workspace/working/zpl-source/source/debug/lib/libproduct.a(bsp_8021x.o)
 .comment       0x0000000000000024       0x25 /home/zhurish/workspace/working/zpl-source/source/debug/lib/libproduct.a(bsp_dos.o)
 .comment       0x0000000000000024       0x25 /home/zhurish/workspace/working/zpl-source/source/debug/lib/libproduct.a(bsp_mac.o)
 .comment       0x0000000000000024       0x25 /home/zhurish/workspace/working/zpl-source/source/debug/lib/libproduct.a(bsp_vlan.o)
 .comment       0x0000000000000024       0x25 /home/zhurish/workspace/working/zpl-source/source/debug/lib/libproduct.a(bsp_qinq.o)
 .comment       0x0000000000000024       0x25 /home/zhurish/workspace/working/zpl-source/source/debug/lib/libproduct.a(bsp_qos.o)
 .comment       0x0000000000000024       0x25 /home/zhurish/workspace/working/zpl-source/source/debug/lib/libproduct.a(bsp_trunk.o)
 .comment       0x0000000000000024       0x25 /home/zhurish/workspace/working/zpl-source/source/debug/lib/libproduct.a(bsp_mirror.o)
 .comment       0x0000000000000024       0x25 /home/zhurish/workspace/working/zpl-source/source/debug/lib/libproduct.a(bsp_cpu.o)
 .comment       0x0000000000000024       0x25 /home/zhurish/workspace/working/zpl-source/source/debug/lib/librtpl.a(nsm_rib.o)
 .comment       0x0000000000000024       0x25 /home/zhurish/workspace/working/zpl-source/source/debug/lib/librtpl.a(router-id.o)
 .comment       0x0000000000000024       0x25 /home/zhurish/workspace/working/zpl-source/source/debug/lib/librtpl.a(nsm_redistribute.o)
 .comment       0x0000000000000024       0x25 /home/zhurish/workspace/working/zpl-source/source/debug/lib/librtpl.a(nsm_zserv.o)
 .comment       0x0000000000000024       0x25 /home/zhurish/workspace/working/zpl-source/source/debug/lib/librtpl.a(nsm_rnh.o)
 .comment       0x0000000000000024       0x25 /home/zhurish/workspace/working/zpl-source/source/debug/lib/libsdk.a(sdk_driver.o)
 .comment       0x0000000000000024       0x25 /home/zhurish/workspace/working/zpl-source/source/debug/lib/libsdk.a(b53_mac_tbl.o)
 .comment       0x0000000000000024       0x25 /home/zhurish/workspace/working/zpl-source/source/debug/lib/libsdk.a(b53_driver.o)
 .comment       0x0000000000000024       0x25 /home/zhurish/workspace/working/zpl-source/source/debug/lib/libsdk.a(b53_mdio.o)
 .comment       0x0000000000000024       0x25 /home/zhurish/workspace/working/zpl-source/source/debug/lib/libsdk.a(b53_global.o)
 .comment       0x0000000000000024       0x25 /home/zhurish/workspace/working/zpl-source/source/debug/lib/libsdk.a(b53_dos.o)
 .comment       0x0000000000000024       0x25 /home/zhurish/workspace/working/zpl-source/source/debug/lib/libsdk.a(b53_mirror.o)
 .comment       0x0000000000000024       0x25 /home/zhurish/workspace/working/zpl-source/source/debug/lib/libsdk.a(b53_port.o)
 .comment       0x0000000000000024       0x25 /home/zhurish/workspace/working/zpl-source/source/debug/lib/libsdk.a(b53_stp.o)
 .comment       0x0000000000000024       0x25 /home/zhurish/workspace/working/zpl-source/source/debug/lib/libsdk.a(b53_trunk.o)
 .comment       0x0000000000000024       0x25 /home/zhurish/workspace/working/zpl-source/source/debug/lib/libsdk.a(b53_vlan.o)
 .comment       0x0000000000000024       0x25 /home/zhurish/workspace/working/zpl-source/source/debug/lib/libsdk.a(b53_qos.o)
 .comment       0x0000000000000024       0x25 /home/zhurish/workspace/working/zpl-source/source/debug/lib/libsdk.a(b53_rate.o)
 .comment       0x0000000000000024       0x25 /home/zhurish/workspace/working/zpl-source/source/debug/lib/libsdk.a(b53_eap.o)
 .comment       0x0000000000000024       0x25 /home/zhurish/workspace/working/zpl-source/source/debug/lib/libsdk.a(b53_phy.o)
 .comment       0x0000000000000024       0x25 /home/zhurish/workspace/working/zpl-source/source/debug/lib/libsdk.a(b53_cpu.o)
 .comment       0x0000000000000024       0x25 /home/zhurish/workspace/working/zpl-source/source/debug/lib/libshell.a(vty_user.o)
 .comment       0x0000000000000024       0x25 /home/zhurish/workspace/working/zpl-source/source/debug/lib/libshell.a(vty.o)
 .comment       0x0000000000000024       0x25 /home/zhurish/workspace/working/zpl-source/source/debug/lib/libstartup.a(os_start.o)
 .comment       0x0000000000000024       0x25 /home/zhurish/workspace/working/zpl-source/source/debug/lib/libstartup.a(os_module.o)
 .comment       0x0000000000000024       0x25 /home/zhurish/workspace/working/zpl-source/source/debug/lib/libstartup.a(os_test.o)
 .comment       0x0000000000000024       0x25 /home/zhurish/workspace/working/zpl-source/source/debug/lib/libuci.a(os_uci.o)
 .comment       0x0000000000000024       0x25 /home/zhurish/workspace/working/zpl-source/source/debug/lib/libuci.a(delta.o)
 .comment       0x0000000000000024       0x25 /home/zhurish/workspace/working/zpl-source/source/debug/lib/libuci.a(file.o)
 .comment       0x0000000000000024       0x25 /home/zhurish/workspace/working/zpl-source/source/debug/lib/libuci.a(util.o)
 .comment       0x0000000000000024       0x25 /home/zhurish/workspace/working/zpl-source/source/debug/lib/libuci.a(libuci.o)
 .comment       0x0000000000000024       0x25 /home/zhurish/workspace/working/zpl-source/source/debug/lib/libbase.a(md5.o)
 .comment       0x0000000000000024       0x25 /home/zhurish/workspace/working/zpl-source/source/debug/lib/libbase.a(sockunion.o)
 .comment       0x0000000000000024       0x25 /home/zhurish/workspace/working/zpl-source/source/debug/lib/libbase.a(pid_output.o)
 .comment       0x0000000000000024       0x25 /home/zhurish/workspace/working/zpl-source/source/debug/lib/libbase.a(buffer.o)
 .comment       0x0000000000000024       0x25 /home/zhurish/workspace/working/zpl-source/source/debug/lib/libbase.a(template.o)
 .comment       0x0000000000000024       0x25 /home/zhurish/workspace/working/zpl-source/source/debug/lib/libbase.a(stream.o)
 .comment       0x0000000000000024       0x25 /home/zhurish/workspace/working/zpl-source/source/debug/lib/libbase.a(nexthop.o)
 .comment       0x0000000000000024       0x25 /home/zhurish/workspace/working/zpl-source/source/debug/lib/libbase.a(table.o)
 .comment       0x0000000000000024       0x25 /home/zhurish/workspace/working/zpl-source/source/debug/lib/libbase.a(connected.o)
 .comment       0x0000000000000024       0x25 /home/zhurish/workspace/working/zpl-source/source/debug/lib/libbase.a(if.o)
 .comment       0x0000000000000024       0x25 /home/zhurish/workspace/working/zpl-source/source/debug/lib/libbase.a(nsm_vrf.o)
 .comment       0x0000000000000024       0x25 /home/zhurish/workspace/working/zpl-source/source/debug/lib/libbase.a(if_name.o)
 .comment       0x0000000000000024       0x25 /home/zhurish/workspace/working/zpl-source/source/debug/lib/libbase.a(nsm_event.o)
 .comment       0x0000000000000024       0x25 /home/zhurish/workspace/working/zpl-source/source/debug/lib/libbase.a(keychain.o)
 .comment       0x0000000000000024       0x25 /home/zhurish/workspace/working/zpl-source/source/debug/lib/libbase.a(filter.o)
 .comment       0x0000000000000024       0x25 /home/zhurish/workspace/working/zpl-source/source/debug/lib/libbase.a(plist.o)
 .comment       0x0000000000000024       0x25 /home/zhurish/workspace/working/zpl-source/source/debug/lib/libbase.a(cmd_log.o)
 .comment       0x0000000000000024       0x25 /home/zhurish/workspace/working/zpl-source/source/debug/lib/libbase.a(cmd_memory.o)
 .comment       0x0000000000000024       0x25 /home/zhurish/workspace/working/zpl-source/source/debug/lib/libbase.a(jhash.o)
 .comment       0x0000000000000024       0x25 /home/zhurish/workspace/working/zpl-source/source/debug/lib/libbase.a(network.o)
 .comment       0x0000000000000024       0x25 /home/zhurish/workspace/working/zpl-source/source/debug/lib/libhal.a(hal_ipccmd.o)
 .comment       0x0000000000000024       0x25 /home/zhurish/workspace/working/zpl-source/source/debug/lib/libhal.a(hal_ipcmsg.o)
 .comment       0x0000000000000024       0x25 /home/zhurish/workspace/working/zpl-source/source/debug/lib/libhal.a(hal_port.o)
 .comment       0x0000000000000024       0x25 /home/zhurish/workspace/working/zpl-source/source/debug/lib/libhal.a(hal_misc.o)
 .comment       0x0000000000000024       0x25 /home/zhurish/workspace/working/zpl-source/source/debug/lib/libhal.a(hal_mstp.o)
 .comment       0x0000000000000024       0x25 /home/zhurish/workspace/working/zpl-source/source/debug/lib/libhal.a(hal_dos.o)
 .comment       0x0000000000000024       0x25 /home/zhurish/workspace/working/zpl-source/source/debug/lib/libhal.a(hal_mac.o)
 .comment       0x0000000000000024       0x25 /home/zhurish/workspace/working/zpl-source/source/debug/lib/libhal.a(hal_vlan.o)
 .comment       0x0000000000000024       0x25 /home/zhurish/workspace/working/zpl-source/source/debug/lib/libhal.a(hal_trunk.o)
 .comment       0x0000000000000024       0x25 /home/zhurish/workspace/working/zpl-source/source/debug/lib/libhal.a(hal_mirror.o)
 .comment       0x0000000000000024       0x25 /home/zhurish/workspace/working/zpl-source/source/debug/lib/libhal.a(hal_driver.o)
 .comment       0x0000000000000024       0x25 /home/zhurish/workspace/working/zpl-source/source/debug/lib/libhal.a(hal_test.o)
 .comment       0x0000000000000024       0x25 /home/zhurish/workspace/working/zpl-source/source/debug/lib/libhal.a(hal_global.o)
 .comment       0x0000000000000024       0x25 /home/zhurish/workspace/working/zpl-source/source/debug/lib/libhal.a(hal_ipcsrv.o)
 .comment       0x0000000000000024       0x25 /home/zhurish/workspace/working/zpl-source/source/debug/lib/libipcbc.a(if_manage.o)
 .comment       0x0000000000000024       0x25 /home/zhurish/workspace/working/zpl-source/source/debug/lib/libipcbc.a(bmgt.o)
 .comment       0x0000000000000024       0x25 /home/zhurish/workspace/working/zpl-source/source/debug/lib/libipcbc.a(if_ktest.o)
 .comment       0x0000000000000024       0x25 /home/zhurish/workspace/working/zpl-source/source/debug/lib/libnsm.a(nsm_debug.o)
 .comment       0x0000000000000024       0x25 /home/zhurish/workspace/working/zpl-source/source/debug/lib/libos.a(os_nvram.o)
 .comment       0x0000000000000024       0x25 /home/zhurish/workspace/working/zpl-source/source/debug/lib/libos.a(tty_com.o)
 .comment       0x0000000000000024       0x25 /home/zhurish/workspace/working/zpl-source/source/debug/lib/libos.a(cmd_os.o)
 .comment       0x0000000000000024       0x25 /home/zhurish/workspace/working/zpl-source/source/debug/lib/libos.a(cmd_nvram_env.o)
 .comment       0x0000000000000024       0x25 /home/zhurish/workspace/working/zpl-source/source/debug/lib/libos.a(os_message.o)
 .comment       0x0000000000000024       0x25 /home/zhurish/workspace/working/zpl-source/source/debug/lib/libshell.a(cmd_vty.o)
 .comment       0x0000000000000024       0x25 /home/zhurish/workspace/working/zpl-source/source/debug/lib/libshell.a(cmd_user_vty.o)
 .comment       0x0000000000000024       0x25 /opt/gcc-linaro-7.5.0-arm-linux-gnueabihf/bin/../arm-linux-gnueabihf/libc/usr/lib/libc_nonshared.a(elf-init.oS)
 .comment       0x0000000000000024       0x25 /opt/gcc-linaro-7.5.0-arm-linux-gnueabihf/bin/../arm-linux-gnueabihf/libc/usr/lib/libc_nonshared.a(stat.oS)
 .comment       0x0000000000000024       0x25 /opt/gcc-linaro-7.5.0-arm-linux-gnueabihf/bin/../lib/gcc/arm-linux-gnueabihf/7.5.0/crtend.o

.ARM.attributes
                0x0000000000000000       0x39
 .ARM.attributes
                0x0000000000000000       0x33 /opt/gcc-linaro-7.5.0-arm-linux-gnueabihf/bin/../arm-linux-gnueabihf/libc/usr/lib/crt1.o
 .ARM.attributes
                0x0000000000000033       0x23 /opt/gcc-linaro-7.5.0-arm-linux-gnueabihf/bin/../arm-linux-gnueabihf/libc/usr/lib/crti.o
 .ARM.attributes
                0x0000000000000056       0x33 /opt/gcc-linaro-7.5.0-arm-linux-gnueabihf/bin/../lib/gcc/arm-linux-gnueabihf/7.5.0/crtbegin.o
 .ARM.attributes
                0x0000000000000089       0x3f os_main.o
 .ARM.attributes
                0x00000000000000c8       0x3f /home/zhurish/workspace/working/zpl-source/source/debug/lib/libbase.a(log.o)
 .ARM.attributes
                0x0000000000000107       0x3f /home/zhurish/workspace/working/zpl-source/source/debug/lib/libbase.a(module.o)
 .ARM.attributes
                0x0000000000000146       0x3f /home/zhurish/workspace/working/zpl-source/source/debug/lib/libbase.a(memory.o)
 .ARM.attributes
                0x0000000000000185       0x3f /home/zhurish/workspace/working/zpl-source/source/debug/lib/libbase.a(memtypes.o)
 .ARM.attributes
                0x00000000000001c4       0x3f /home/zhurish/workspace/working/zpl-source/source/debug/lib/libbase.a(command.o)
 .ARM.attributes
                0x0000000000000203       0x3f /home/zhurish/workspace/working/zpl-source/source/debug/lib/libbase.a(cli_node.o)
 .ARM.attributes
                0x0000000000000242       0x3f /home/zhurish/workspace/working/zpl-source/source/debug/lib/libbase.a(host.o)
 .ARM.attributes
                0x0000000000000281       0x3f /home/zhurish/workspace/working/zpl-source/source/debug/lib/libbase.a(cmd_host.o)
 .ARM.attributes
                0x00000000000002c0       0x3f /home/zhurish/workspace/working/zpl-source/source/debug/lib/libbase.a(hash.o)
 .ARM.attributes
                0x00000000000002ff       0x3f /home/zhurish/workspace/working/zpl-source/source/debug/lib/libbase.a(str.o)
 .ARM.attributes
                0x000000000000033e       0x3f /home/zhurish/workspace/working/zpl-source/source/debug/lib/libbase.a(moduletypes.o)
 .ARM.attributes
                0x000000000000037d       0x3f /home/zhurish/workspace/working/zpl-source/source/debug/lib/libbase.a(prefix.o)
 .ARM.attributes
                0x00000000000003bc       0x3f /home/zhurish/workspace/working/zpl-source/source/debug/lib/libbase.a(vector.o)
 .ARM.attributes
                0x00000000000003fb       0x3f /home/zhurish/workspace/working/zpl-source/source/debug/lib/libbase.a(workqueue.o)
 .ARM.attributes
                0x000000000000043a       0x3f /home/zhurish/workspace/working/zpl-source/source/debug/lib/libbase.a(thread.o)
 .ARM.attributes
                0x0000000000000479       0x3f /home/zhurish/workspace/working/zpl-source/source/debug/lib/libbase.a(linklist.o)
 .ARM.attributes
                0x00000000000004b8       0x3f /home/zhurish/workspace/working/zpl-source/source/debug/lib/libbase.a(pqueue.o)
 .ARM.attributes
                0x00000000000004f7       0x3f /home/zhurish/workspace/working/zpl-source/source/debug/lib/libnsm.a(moduletable.o)
 .ARM.attributes
                0x0000000000000536       0x3f /home/zhurish/workspace/working/zpl-source/source/debug/lib/libnsm.a(nsm_main.o)
 .ARM.attributes
                0x0000000000000575       0x3f /home/zhurish/workspace/working/zpl-source/source/debug/lib/libnsm.a(nsm_interface.o)
 .ARM.attributes
                0x00000000000005b4       0x3f /home/zhurish/workspace/working/zpl-source/source/debug/lib/libnsm.a(nsm_8021x.o)
 .ARM.attributes
                0x00000000000005f3       0x3f /home/zhurish/workspace/working/zpl-source/source/debug/lib/libnsm.a(nsm_arp.o)
 .ARM.attributes
                0x0000000000000632       0x3f /home/zhurish/workspace/working/zpl-source/source/debug/lib/libnsm.a(nsm_bridge.o)
 .ARM.attributes
                0x0000000000000671       0x3f /home/zhurish/workspace/working/zpl-source/source/debug/lib/libnsm.a(nsm_dns.o)
 .ARM.attributes
                0x00000000000006b0       0x3f /home/zhurish/workspace/working/zpl-source/source/debug/lib/libnsm.a(nsm_dos.o)
 .ARM.attributes
                0x00000000000006ef       0x3f /home/zhurish/workspace/working/zpl-source/source/debug/lib/libnsm.a(nsm_firewalld.o)
 .ARM.attributes
                0x000000000000072e       0x3f /home/zhurish/workspace/working/zpl-source/source/debug/lib/libnsm.a(nsm_mac.o)
 .ARM.attributes
                0x000000000000076d       0x3f /home/zhurish/workspace/working/zpl-source/source/debug/lib/libnsm.a(nsm_vlan.o)
 .ARM.attributes
                0x00000000000007ac       0x3f /home/zhurish/workspace/working/zpl-source/source/debug/lib/libnsm.a(nsm_qos.o)
 .ARM.attributes
                0x00000000000007eb       0x3f /home/zhurish/workspace/working/zpl-source/source/debug/lib/libnsm.a(nsm_qos_acl.o)
 .ARM.attributes
                0x000000000000082a       0x3f /home/zhurish/workspace/working/zpl-source/source/debug/lib/libnsm.a(nsm_trunk.o)
 .ARM.attributes
                0x0000000000000869       0x3f /home/zhurish/workspace/working/zpl-source/source/debug/lib/libnsm.a(nsm_mirror.o)
 .ARM.attributes
                0x00000000000008a8       0x3f /home/zhurish/workspace/working/zpl-source/source/debug/lib/libnsm.a(nsm_tunnel.o)
 .ARM.attributes
                0x00000000000008e7       0x3f /home/zhurish/workspace/working/zpl-source/source/debug/lib/libnsm.a(nsm_serial.o)
 .ARM.attributes
                0x0000000000000926       0x3f /home/zhurish/workspace/working/zpl-source/source/debug/lib/libnsm.a(nsm_ppp.o)
 .ARM.attributes
                0x0000000000000965       0x3f /home/zhurish/workspace/working/zpl-source/source/debug/lib/libnsm.a(nsm_security.o)
 .ARM.attributes
                0x00000000000009a4       0x3f /home/zhurish/workspace/working/zpl-source/source/debug/lib/libnsm.a(nsm_vlaneth.o)
 .ARM.attributes
                0x00000000000009e3       0x3f /home/zhurish/workspace/working/zpl-source/source/debug/lib/libnsm.a(cmd_interface.o)
 .ARM.attributes
                0x0000000000000a22       0x3f /home/zhurish/workspace/working/zpl-source/source/debug/lib/libnsm.a(cmd_routerid.o)
 .ARM.attributes
                0x0000000000000a61       0x3f /home/zhurish/workspace/working/zpl-source/source/debug/lib/libnsm.a(cmd_port.o)
 .ARM.attributes
                0x0000000000000aa0       0x3f /home/zhurish/workspace/working/zpl-source/source/debug/lib/libnsm.a(cmd_route.o)
 .ARM.attributes
                0x0000000000000adf       0x3f /home/zhurish/workspace/working/zpl-source/source/debug/lib/libnsm.a(cmd_dot1x.o)
 .ARM.attributes
                0x0000000000000b1e       0x3f /home/zhurish/workspace/working/zpl-source/source/debug/lib/libnsm.a(cmd_arp.o)
 .ARM.attributes
                0x0000000000000b5d       0x3f /home/zhurish/workspace/working/zpl-source/source/debug/lib/libnsm.a(cmd_bridge.o)
 .ARM.attributes
                0x0000000000000b9c       0x3f /home/zhurish/workspace/working/zpl-source/source/debug/lib/libnsm.a(cmd_dns.o)
 .ARM.attributes
                0x0000000000000bdb       0x3f /home/zhurish/workspace/working/zpl-source/source/debug/lib/libnsm.a(cmd_dos.o)
 .ARM.attributes
                0x0000000000000c1a       0x3f /home/zhurish/workspace/working/zpl-source/source/debug/lib/libnsm.a(cmd_mac.o)
 .ARM.attributes
                0x0000000000000c59       0x3f /home/zhurish/workspace/working/zpl-source/source/debug/lib/libnsm.a(cmd_vlan.o)
 .ARM.attributes
                0x0000000000000c98       0x3f /home/zhurish/workspace/working/zpl-source/source/debug/lib/libnsm.a(cmd_qos.o)
 .ARM.attributes
                0x0000000000000cd7       0x3f /home/zhurish/workspace/working/zpl-source/source/debug/lib/libnsm.a(cmd_qos_acl.o)
 .ARM.attributes
                0x0000000000000d16       0x3f /home/zhurish/workspace/working/zpl-source/source/debug/lib/libnsm.a(cmd_trunk.o)
 .ARM.attributes
                0x0000000000000d55       0x3f /home/zhurish/workspace/working/zpl-source/source/debug/lib/libnsm.a(cmd_mirror.o)
 .ARM.attributes
                0x0000000000000d94       0x3f /home/zhurish/workspace/working/zpl-source/source/debug/lib/libnsm.a(cmd_tunnel.o)
 .ARM.attributes
                0x0000000000000dd3       0x3f /home/zhurish/workspace/working/zpl-source/source/debug/lib/libnsm.a(cmd_serial.o)
 .ARM.attributes
                0x0000000000000e12       0x3f /home/zhurish/workspace/working/zpl-source/source/debug/lib/libnsm.a(cmd_ppp.o)
 .ARM.attributes
                0x0000000000000e51       0x3f /home/zhurish/workspace/working/zpl-source/source/debug/lib/libnsm.a(nsm_halpal.o)
 .ARM.attributes
                0x0000000000000e90       0x3f /home/zhurish/workspace/working/zpl-source/source/debug/lib/libnsm.a(nsm_pal.o)
 .ARM.attributes
                0x0000000000000ecf       0x3f /home/zhurish/workspace/working/zpl-source/source/debug/lib/libos.a(os_ipstack.o)
 .ARM.attributes
                0x0000000000000f0e       0x3f /home/zhurish/workspace/working/zpl-source/source/debug/lib/libos.a(os_job.o)
 .ARM.attributes
                0x0000000000000f4d       0x3f /home/zhurish/workspace/working/zpl-source/source/debug/lib/libos.a(os_list.o)
 .ARM.attributes
                0x0000000000000f8c       0x3f /home/zhurish/workspace/working/zpl-source/source/debug/lib/libos.a(os_sem.o)
 .ARM.attributes
                0x0000000000000fcb       0x3f /home/zhurish/workspace/working/zpl-source/source/debug/lib/libos.a(os_task.o)
 .ARM.attributes
                0x000000000000100a       0x3f /home/zhurish/workspace/working/zpl-source/source/debug/lib/libos.a(os_time.o)
 .ARM.attributes
                0x0000000000001049       0x3f /home/zhurish/workspace/working/zpl-source/source/debug/lib/libos.a(os_util.o)
 .ARM.attributes
                0x0000000000001088       0x3f /home/zhurish/workspace/working/zpl-source/source/debug/lib/libos.a(os_socket.o)
 .ARM.attributes
                0x00000000000010c7       0x3f /home/zhurish/workspace/working/zpl-source/source/debug/lib/libos.a(os_process.o)
 .ARM.attributes
                0x0000000000001106       0x3f /home/zhurish/workspace/working/zpl-source/source/debug/lib/libos.a(os_file.o)
 .ARM.attributes
                0x0000000000001145       0x3f /home/zhurish/workspace/working/zpl-source/source/debug/lib/libos.a(os_signal.o)
 .ARM.attributes
                0x0000000000001184       0x3f /home/zhurish/workspace/working/zpl-source/source/debug/lib/libos.a(os_backtrace.o)
 .ARM.attributes
                0x00000000000011c3       0x3f /home/zhurish/workspace/working/zpl-source/source/debug/lib/libos.a(libnetpro.o)
 .ARM.attributes
                0x0000000000001202       0x3f /home/zhurish/workspace/working/zpl-source/source/debug/lib/libos.a(zpl_errno.o)
 .ARM.attributes
                0x0000000000001241       0x3f /home/zhurish/workspace/working/zpl-source/source/debug/lib/libpal.a(pal_driver.o)
 .ARM.attributes
                0x0000000000001280       0x3f /home/zhurish/workspace/working/zpl-source/source/debug/lib/libpal.a(kernel_packet.o)
 .ARM.attributes
                0x00000000000012bf       0x3f /home/zhurish/workspace/working/zpl-source/source/debug/lib/libpal.a(kernel_arp.o)
 .ARM.attributes
                0x00000000000012fe       0x3f /home/zhurish/workspace/working/zpl-source/source/debug/lib/libpal.a(kernel_ipforward.o)
 .ARM.attributes
                0x000000000000133d       0x3f /home/zhurish/workspace/working/zpl-source/source/debug/lib/libpal.a(kernel_driver.o)
 .ARM.attributes
                0x000000000000137c       0x3f /home/zhurish/workspace/working/zpl-source/source/debug/lib/libpal.a(kernel_ioctl.o)
 .ARM.attributes
                0x00000000000013bb       0x3f /home/zhurish/workspace/working/zpl-source/source/debug/lib/libpal.a(kernel_vrf.o)
 .ARM.attributes
                0x00000000000013fa       0x3f /home/zhurish/workspace/working/zpl-source/source/debug/lib/libpal.a(kernel_nladdress.o)
 .ARM.attributes
                0x0000000000001439       0x3f /home/zhurish/workspace/working/zpl-source/source/debug/lib/libpal.a(kernel_nliface.o)
 .ARM.attributes
                0x0000000000001478       0x3f /home/zhurish/workspace/working/zpl-source/source/debug/lib/libpal.a(kernel_firewalld.o)
 .ARM.attributes
                0x00000000000014b7       0x3f /home/zhurish/workspace/working/zpl-source/source/debug/lib/libpal.a(kernel_netlink.o)
 .ARM.attributes
                0x00000000000014f6       0x3f /home/zhurish/workspace/working/zpl-source/source/debug/lib/libproduct.a(hal_client.o)
 .ARM.attributes
                0x0000000000001535       0x3f /home/zhurish/workspace/working/zpl-source/source/debug/lib/libproduct.a(bsp_driver.o)
 .ARM.attributes
                0x0000000000001574       0x3f /home/zhurish/workspace/working/zpl-source/source/debug/lib/libproduct.a(bsp_global.o)
 .ARM.attributes
                0x00000000000015b3       0x3f /home/zhurish/workspace/working/zpl-source/source/debug/lib/libproduct.a(bsp_port.o)
 .ARM.attributes
                0x00000000000015f2       0x3f /home/zhurish/workspace/working/zpl-source/source/debug/lib/libproduct.a(bsp_mstp.o)
 .ARM.attributes
                0x0000000000001631       0x3f /home/zhurish/workspace/working/zpl-source/source/debug/lib/libproduct.a(bsp_8021x.o)
 .ARM.attributes
                0x0000000000001670       0x3f /home/zhurish/workspace/working/zpl-source/source/debug/lib/libproduct.a(bsp_dos.o)
 .ARM.attributes
                0x00000000000016af       0x3f /home/zhurish/workspace/working/zpl-source/source/debug/lib/libproduct.a(bsp_mac.o)
 .ARM.attributes
                0x00000000000016ee       0x3f /home/zhurish/workspace/working/zpl-source/source/debug/lib/libproduct.a(bsp_vlan.o)
 .ARM.attributes
                0x000000000000172d       0x3f /home/zhurish/workspace/working/zpl-source/source/debug/lib/libproduct.a(bsp_qinq.o)
 .ARM.attributes
                0x000000000000176c       0x3f /home/zhurish/workspace/working/zpl-source/source/debug/lib/libproduct.a(bsp_qos.o)
 .ARM.attributes
                0x00000000000017ab       0x3f /home/zhurish/workspace/working/zpl-source/source/debug/lib/libproduct.a(bsp_trunk.o)
 .ARM.attributes
                0x00000000000017ea       0x3f /home/zhurish/workspace/working/zpl-source/source/debug/lib/libproduct.a(bsp_mirror.o)
 .ARM.attributes
                0x0000000000001829       0x3f /home/zhurish/workspace/working/zpl-source/source/debug/lib/libproduct.a(bsp_cpu.o)
 .ARM.attributes
                0x0000000000001868       0x3f /home/zhurish/workspace/working/zpl-source/source/debug/lib/librtpl.a(nsm_rib.o)
 .ARM.attributes
                0x00000000000018a7       0x3f /home/zhurish/workspace/working/zpl-source/source/debug/lib/librtpl.a(router-id.o)
 .ARM.attributes
                0x00000000000018e6       0x3f /home/zhurish/workspace/working/zpl-source/source/debug/lib/librtpl.a(nsm_redistribute.o)
 .ARM.attributes
                0x0000000000001925       0x3f /home/zhurish/workspace/working/zpl-source/source/debug/lib/librtpl.a(nsm_zserv.o)
 .ARM.attributes
                0x0000000000001964       0x3f /home/zhurish/workspace/working/zpl-source/source/debug/lib/librtpl.a(nsm_rnh.o)
 .ARM.attributes
                0x00000000000019a3       0x3f /home/zhurish/workspace/working/zpl-source/source/debug/lib/libsdk.a(sdk_driver.o)
 .ARM.attributes
                0x00000000000019e2       0x3f /home/zhurish/workspace/working/zpl-source/source/debug/lib/libsdk.a(b53_mac_tbl.o)
 .ARM.attributes
                0x0000000000001a21       0x3f /home/zhurish/workspace/working/zpl-source/source/debug/lib/libsdk.a(b53_driver.o)
 .ARM.attributes
                0x0000000000001a60       0x3f /home/zhurish/workspace/working/zpl-source/source/debug/lib/libsdk.a(b53_mdio.o)
 .ARM.attributes
                0x0000000000001a9f       0x3f /home/zhurish/workspace/working/zpl-source/source/debug/lib/libsdk.a(b53_global.o)
 .ARM.attributes
                0x0000000000001ade       0x3f /home/zhurish/workspace/working/zpl-source/source/debug/lib/libsdk.a(b53_dos.o)
 .ARM.attributes
                0x0000000000001b1d       0x3f /home/zhurish/workspace/working/zpl-source/source/debug/lib/libsdk.a(b53_mirror.o)
 .ARM.attributes
                0x0000000000001b5c       0x3f /home/zhurish/workspace/working/zpl-source/source/debug/lib/libsdk.a(b53_port.o)
 .ARM.attributes
                0x0000000000001b9b       0x3f /home/zhurish/workspace/working/zpl-source/source/debug/lib/libsdk.a(b53_stp.o)
 .ARM.attributes
                0x0000000000001bda       0x3f /home/zhurish/workspace/working/zpl-source/source/debug/lib/libsdk.a(b53_trunk.o)
 .ARM.attributes
                0x0000000000001c19       0x3f /home/zhurish/workspace/working/zpl-source/source/debug/lib/libsdk.a(b53_vlan.o)
 .ARM.attributes
                0x0000000000001c58       0x3f /home/zhurish/workspace/working/zpl-source/source/debug/lib/libsdk.a(b53_qos.o)
 .ARM.attributes
                0x0000000000001c97       0x3f /home/zhurish/workspace/working/zpl-source/source/debug/lib/libsdk.a(b53_rate.o)
 .ARM.attributes
                0x0000000000001cd6       0x3f /home/zhurish/workspace/working/zpl-source/source/debug/lib/libsdk.a(b53_eap.o)
 .ARM.attributes
                0x0000000000001d15       0x3f /home/zhurish/workspace/working/zpl-source/source/debug/lib/libsdk.a(b53_phy.o)
 .ARM.attributes
                0x0000000000001d54       0x3f /home/zhurish/workspace/working/zpl-source/source/debug/lib/libsdk.a(b53_cpu.o)
 .ARM.attributes
                0x0000000000001d93       0x3f /home/zhurish/workspace/working/zpl-source/source/debug/lib/libshell.a(vty_user.o)
 .ARM.attributes
                0x0000000000001dd2       0x3f /home/zhurish/workspace/working/zpl-source/source/debug/lib/libshell.a(vty.o)
 .ARM.attributes
                0x0000000000001e11       0x3f /home/zhurish/workspace/working/zpl-source/source/debug/lib/libstartup.a(os_start.o)
 .ARM.attributes
                0x0000000000001e50       0x3f /home/zhurish/workspace/working/zpl-source/source/debug/lib/libstartup.a(os_module.o)
 .ARM.attributes
                0x0000000000001e8f       0x3f /home/zhurish/workspace/working/zpl-source/source/debug/lib/libstartup.a(os_test.o)
 .ARM.attributes
                0x0000000000001ece       0x3f /home/zhurish/workspace/working/zpl-source/source/debug/lib/libuci.a(os_uci.o)
 .ARM.attributes
                0x0000000000001f0d       0x3f /home/zhurish/workspace/working/zpl-source/source/debug/lib/libuci.a(delta.o)
 .ARM.attributes
                0x0000000000001f4c       0x3f /home/zhurish/workspace/working/zpl-source/source/debug/lib/libuci.a(file.o)
 .ARM.attributes
                0x0000000000001f8b       0x3f /home/zhurish/workspace/working/zpl-source/source/debug/lib/libuci.a(util.o)
 .ARM.attributes
                0x0000000000001fca       0x3f /home/zhurish/workspace/working/zpl-source/source/debug/lib/libuci.a(libuci.o)
 .ARM.attributes
                0x0000000000002009       0x3f /home/zhurish/workspace/working/zpl-source/source/debug/lib/libbase.a(md5.o)
 .ARM.attributes
                0x0000000000002048       0x3f /home/zhurish/workspace/working/zpl-source/source/debug/lib/libbase.a(sockunion.o)
 .ARM.attributes
                0x0000000000002087       0x3f /home/zhurish/workspace/working/zpl-source/source/debug/lib/libbase.a(pid_output.o)
 .ARM.attributes
                0x00000000000020c6       0x3f /home/zhurish/workspace/working/zpl-source/source/debug/lib/libbase.a(buffer.o)
 .ARM.attributes
                0x0000000000002105       0x3f /home/zhurish/workspace/working/zpl-source/source/debug/lib/libbase.a(template.o)
 .ARM.attributes
                0x0000000000002144       0x3f /home/zhurish/workspace/working/zpl-source/source/debug/lib/libbase.a(stream.o)
 .ARM.attributes
                0x0000000000002183       0x3f /home/zhurish/workspace/working/zpl-source/source/debug/lib/libbase.a(nexthop.o)
 .ARM.attributes
                0x00000000000021c2       0x3f /home/zhurish/workspace/working/zpl-source/source/debug/lib/libbase.a(table.o)
 .ARM.attributes
                0x0000000000002201       0x3f /home/zhurish/workspace/working/zpl-source/source/debug/lib/libbase.a(connected.o)
 .ARM.attributes
                0x0000000000002240       0x3f /home/zhurish/workspace/working/zpl-source/source/debug/lib/libbase.a(if.o)
 .ARM.attributes
                0x000000000000227f       0x3f /home/zhurish/workspace/working/zpl-source/source/debug/lib/libbase.a(nsm_vrf.o)
 .ARM.attributes
                0x00000000000022be       0x3f /home/zhurish/workspace/working/zpl-source/source/debug/lib/libbase.a(if_name.o)
 .ARM.attributes
                0x00000000000022fd       0x3f /home/zhurish/workspace/working/zpl-source/source/debug/lib/libbase.a(nsm_event.o)
 .ARM.attributes
                0x000000000000233c       0x3f /home/zhurish/workspace/working/zpl-source/source/debug/lib/libbase.a(keychain.o)
 .ARM.attributes
                0x000000000000237b       0x3f /home/zhurish/workspace/working/zpl-source/source/debug/lib/libbase.a(filter.o)
 .ARM.attributes
                0x00000000000023ba       0x3f /home/zhurish/workspace/working/zpl-source/source/debug/lib/libbase.a(plist.o)
 .ARM.attributes
                0x00000000000023f9       0x3f /home/zhurish/workspace/working/zpl-source/source/debug/lib/libbase.a(cmd_log.o)
 .ARM.attributes
                0x0000000000002438       0x3f /home/zhurish/workspace/working/zpl-source/source/debug/lib/libbase.a(cmd_memory.o)
 .ARM.attributes
                0x0000000000002477       0x3f /home/zhurish/workspace/working/zpl-source/source/debug/lib/libbase.a(jhash.o)
 .ARM.attributes
                0x00000000000024b6       0x3f /home/zhurish/workspace/working/zpl-source/source/debug/lib/libbase.a(network.o)
 .ARM.attributes
                0x00000000000024f5       0x3f /home/zhurish/workspace/working/zpl-source/source/debug/lib/libhal.a(hal_ipccmd.o)
 .ARM.attributes
                0x0000000000002534       0x3f /home/zhurish/workspace/working/zpl-source/source/debug/lib/libhal.a(hal_ipcmsg.o)
 .ARM.attributes
                0x0000000000002573       0x3f /home/zhurish/workspace/working/zpl-source/source/debug/lib/libhal.a(hal_port.o)
 .ARM.attributes
                0x00000000000025b2       0x3f /home/zhurish/workspace/working/zpl-source/source/debug/lib/libhal.a(hal_misc.o)
 .ARM.attributes
                0x00000000000025f1       0x3f /home/zhurish/workspace/working/zpl-source/source/debug/lib/libhal.a(hal_mstp.o)
 .ARM.attributes
                0x0000000000002630       0x3f /home/zhurish/workspace/working/zpl-source/source/debug/lib/libhal.a(hal_dos.o)
 .ARM.attributes
                0x000000000000266f       0x3f /home/zhurish/workspace/working/zpl-source/source/debug/lib/libhal.a(hal_mac.o)
 .ARM.attributes
                0x00000000000026ae       0x3f /home/zhurish/workspace/working/zpl-source/source/debug/lib/libhal.a(hal_vlan.o)
 .ARM.attributes
                0x00000000000026ed       0x3f /home/zhurish/workspace/working/zpl-source/source/debug/lib/libhal.a(hal_trunk.o)
 .ARM.attributes
                0x000000000000272c       0x3f /home/zhurish/workspace/working/zpl-source/source/debug/lib/libhal.a(hal_mirror.o)
 .ARM.attributes
                0x000000000000276b       0x3f /home/zhurish/workspace/working/zpl-source/source/debug/lib/libhal.a(hal_driver.o)
 .ARM.attributes
                0x00000000000027aa       0x3f /home/zhurish/workspace/working/zpl-source/source/debug/lib/libhal.a(hal_test.o)
 .ARM.attributes
                0x00000000000027e9       0x3f /home/zhurish/workspace/working/zpl-source/source/debug/lib/libhal.a(hal_global.o)
 .ARM.attributes
                0x0000000000002828       0x3f /home/zhurish/workspace/working/zpl-source/source/debug/lib/libhal.a(hal_ipcsrv.o)
 .ARM.attributes
                0x0000000000002867       0x3f /home/zhurish/workspace/working/zpl-source/source/debug/lib/libipcbc.a(if_manage.o)
 .ARM.attributes
                0x00000000000028a6       0x3f /home/zhurish/workspace/working/zpl-source/source/debug/lib/libipcbc.a(bmgt.o)
 .ARM.attributes
                0x00000000000028e5       0x3f /home/zhurish/workspace/working/zpl-source/source/debug/lib/libipcbc.a(if_ktest.o)
 .ARM.attributes
                0x0000000000002924       0x3f /home/zhurish/workspace/working/zpl-source/source/debug/lib/libnsm.a(nsm_debug.o)
 .ARM.attributes
                0x0000000000002963       0x3f /home/zhurish/workspace/working/zpl-source/source/debug/lib/libos.a(os_nvram.o)
 .ARM.attributes
                0x00000000000029a2       0x3f /home/zhurish/workspace/working/zpl-source/source/debug/lib/libos.a(tty_com.o)
 .ARM.attributes
                0x00000000000029e1       0x3f /home/zhurish/workspace/working/zpl-source/source/debug/lib/libos.a(cmd_os.o)
 .ARM.attributes
                0x0000000000002a20       0x3f /home/zhurish/workspace/working/zpl-source/source/debug/lib/libos.a(cmd_nvram_env.o)
 .ARM.attributes
                0x0000000000002a5f       0x3f /home/zhurish/workspace/working/zpl-source/source/debug/lib/libos.a(os_message.o)
 .ARM.attributes
                0x0000000000002a9e       0x3f /home/zhurish/workspace/working/zpl-source/source/debug/lib/libshell.a(cmd_vty.o)
 .ARM.attributes
                0x0000000000002add       0x3f /home/zhurish/workspace/working/zpl-source/source/debug/lib/libshell.a(cmd_user_vty.o)
 .ARM.attributes
                0x0000000000002b1c       0x35 /opt/gcc-linaro-7.5.0-arm-linux-gnueabihf/bin/../arm-linux-gnueabihf/libc/usr/lib/libc_nonshared.a(elf-init.oS)
 .ARM.attributes
                0x0000000000002b51       0x35 /opt/gcc-linaro-7.5.0-arm-linux-gnueabihf/bin/../arm-linux-gnueabihf/libc/usr/lib/libc_nonshared.a(stat.oS)
 .ARM.attributes
                0x0000000000002b86       0x33 /opt/gcc-linaro-7.5.0-arm-linux-gnueabihf/bin/../lib/gcc/arm-linux-gnueabihf/7.5.0/crtend.o
 .ARM.attributes
                0x0000000000002bb9       0x23 /opt/gcc-linaro-7.5.0-arm-linux-gnueabihf/bin/../arm-linux-gnueabihf/libc/usr/lib/crtn.o

.debug
 *(.debug)

.line
 *(.line)

.debug_srcinfo
 *(.debug_srcinfo)

.debug_sfnames
 *(.debug_sfnames)

.debug_aranges  0x0000000000000000       0xf0
 *(.debug_aranges)
 .debug_aranges
                0x0000000000000000       0x38 /opt/gcc-linaro-7.5.0-arm-linux-gnueabihf/bin/../arm-linux-gnueabihf/libc/usr/lib/crt1.o
 .debug_aranges
                0x0000000000000038       0x30 /opt/gcc-linaro-7.5.0-arm-linux-gnueabihf/bin/../arm-linux-gnueabihf/libc/usr/lib/crti.o
 .debug_aranges
                0x0000000000000068       0x20 os_main.o
 .debug_aranges
                0x0000000000000088       0x20 /opt/gcc-linaro-7.5.0-arm-linux-gnueabihf/bin/../arm-linux-gnueabihf/libc/usr/lib/libc_nonshared.a(elf-init.oS)
 .debug_aranges
                0x00000000000000a8       0x20 /opt/gcc-linaro-7.5.0-arm-linux-gnueabihf/bin/../arm-linux-gnueabihf/libc/usr/lib/libc_nonshared.a(stat.oS)
 .debug_aranges
                0x00000000000000c8       0x28 /opt/gcc-linaro-7.5.0-arm-linux-gnueabihf/bin/../arm-linux-gnueabihf/libc/usr/lib/crtn.o

.debug_pubnames
 *(.debug_pubnames)

.debug_info     0x0000000000000000     0x3a67
 *(.debug_info .gnu.linkonce.wi.*)
 .debug_info    0x0000000000000000      0x120 /opt/gcc-linaro-7.5.0-arm-linux-gnueabihf/bin/../arm-linux-gnueabihf/libc/usr/lib/crt1.o
 .debug_info    0x0000000000000120       0x9a /opt/gcc-linaro-7.5.0-arm-linux-gnueabihf/bin/../arm-linux-gnueabihf/libc/usr/lib/crti.o
 .debug_info    0x00000000000001ba     0x3423 os_main.o
 .debug_info    0x00000000000035dd      0x189 /opt/gcc-linaro-7.5.0-arm-linux-gnueabihf/bin/../arm-linux-gnueabihf/libc/usr/lib/libc_nonshared.a(elf-init.oS)
 .debug_info    0x0000000000003766      0x267 /opt/gcc-linaro-7.5.0-arm-linux-gnueabihf/bin/../arm-linux-gnueabihf/libc/usr/lib/libc_nonshared.a(stat.oS)
 .debug_info    0x00000000000039cd       0x9a /opt/gcc-linaro-7.5.0-arm-linux-gnueabihf/bin/../arm-linux-gnueabihf/libc/usr/lib/crtn.o

.debug_abbrev   0x0000000000000000      0x506
 *(.debug_abbrev)
 .debug_abbrev  0x0000000000000000       0x52 /opt/gcc-linaro-7.5.0-arm-linux-gnueabihf/bin/../arm-linux-gnueabihf/libc/usr/lib/crt1.o
 .debug_abbrev  0x0000000000000052       0x12 /opt/gcc-linaro-7.5.0-arm-linux-gnueabihf/bin/../arm-linux-gnueabihf/libc/usr/lib/crti.o
 .debug_abbrev  0x0000000000000064      0x2ae os_main.o
 .debug_abbrev  0x0000000000000312      0x118 /opt/gcc-linaro-7.5.0-arm-linux-gnueabihf/bin/../arm-linux-gnueabihf/libc/usr/lib/libc_nonshared.a(elf-init.oS)
 .debug_abbrev  0x000000000000042a       0xca /opt/gcc-linaro-7.5.0-arm-linux-gnueabihf/bin/../arm-linux-gnueabihf/libc/usr/lib/libc_nonshared.a(stat.oS)
 .debug_abbrev  0x00000000000004f4       0x12 /opt/gcc-linaro-7.5.0-arm-linux-gnueabihf/bin/../arm-linux-gnueabihf/libc/usr/lib/crtn.o

.debug_line     0x0000000000000000      0xb7e
 *(.debug_line .debug_line.* .debug_line_end)
 .debug_line    0x0000000000000000       0x80 /opt/gcc-linaro-7.5.0-arm-linux-gnueabihf/bin/../arm-linux-gnueabihf/libc/usr/lib/crt1.o
 .debug_line    0x0000000000000080       0x6c /opt/gcc-linaro-7.5.0-arm-linux-gnueabihf/bin/../arm-linux-gnueabihf/libc/usr/lib/crti.o
 .debug_line    0x00000000000000ec      0x884 os_main.o
 .debug_line    0x0000000000000970       0xf7 /opt/gcc-linaro-7.5.0-arm-linux-gnueabihf/bin/../arm-linux-gnueabihf/libc/usr/lib/libc_nonshared.a(elf-init.oS)
 .debug_line    0x0000000000000a67       0xc3 /opt/gcc-linaro-7.5.0-arm-linux-gnueabihf/bin/../arm-linux-gnueabihf/libc/usr/lib/libc_nonshared.a(stat.oS)
 .debug_line    0x0000000000000b2a       0x54 /opt/gcc-linaro-7.5.0-arm-linux-gnueabihf/bin/../arm-linux-gnueabihf/libc/usr/lib/crtn.o

.debug_frame    0x0000000000000000       0xdc
 *(.debug_frame)
 .debug_frame   0x0000000000000000       0x78 os_main.o
 .debug_frame   0x0000000000000078       0x44 /opt/gcc-linaro-7.5.0-arm-linux-gnueabihf/bin/../arm-linux-gnueabihf/libc/usr/lib/libc_nonshared.a(elf-init.oS)
 .debug_frame   0x00000000000000bc       0x20 /opt/gcc-linaro-7.5.0-arm-linux-gnueabihf/bin/../arm-linux-gnueabihf/libc/usr/lib/libc_nonshared.a(stat.oS)

.debug_str      0x0000000000000000     0x2ed8
 *(.debug_str)
 .debug_str     0x0000000000000000      0x19d /opt/gcc-linaro-7.5.0-arm-linux-gnueabihf/bin/../arm-linux-gnueabihf/libc/usr/lib/crt1.o
                                        0x1dd (size before relaxing)
 .debug_str     0x000000000000019d     0x294a os_main.o
                                       0x2b9f (size before relaxing)
 .debug_str     0x0000000000002ae7      0x192 /opt/gcc-linaro-7.5.0-arm-linux-gnueabihf/bin/../arm-linux-gnueabihf/libc/usr/lib/libc_nonshared.a(elf-init.oS)
                                        0x22e (size before relaxing)
 .debug_str     0x0000000000002c79      0x25f /opt/gcc-linaro-7.5.0-arm-linux-gnueabihf/bin/../arm-linux-gnueabihf/libc/usr/lib/libc_nonshared.a(stat.oS)
                                        0x318 (size before relaxing)

.debug_loc      0x0000000000000000      0x135
 *(.debug_loc)
 .debug_loc     0x0000000000000000       0xdd /opt/gcc-linaro-7.5.0-arm-linux-gnueabihf/bin/../arm-linux-gnueabihf/libc/usr/lib/libc_nonshared.a(elf-init.oS)
 .debug_loc     0x00000000000000dd       0x58 /opt/gcc-linaro-7.5.0-arm-linux-gnueabihf/bin/../arm-linux-gnueabihf/libc/usr/lib/libc_nonshared.a(stat.oS)

.debug_macinfo
 *(.debug_macinfo)

.debug_weaknames
 *(.debug_weaknames)

.debug_funcnames
 *(.debug_funcnames)

.debug_typenames
 *(.debug_typenames)

.debug_varnames
 *(.debug_varnames)

.debug_pubtypes
 *(.debug_pubtypes)

.debug_ranges   0x0000000000000000       0x48
 *(.debug_ranges)
 .debug_ranges  0x0000000000000000       0x28 /opt/gcc-linaro-7.5.0-arm-linux-gnueabihf/bin/../arm-linux-gnueabihf/libc/usr/lib/crti.o
 .debug_ranges  0x0000000000000028       0x20 /opt/gcc-linaro-7.5.0-arm-linux-gnueabihf/bin/../arm-linux-gnueabihf/libc/usr/lib/crtn.o

.debug_macro
 *(.debug_macro)

.debug_addr
 *(.debug_addr)

.gnu.attributes
 *(.gnu.attributes)

.note.gnu.arm.ident
 *(.note.gnu.arm.ident)

/DISCARD/
 *(.note.GNU-stack)
 *(.gnu_debuglink)
 *(.gnu.lto_*)
OUTPUT(SWP-V0.0.0.27.bin elf32-littlearm)
